ARM GAS  /tmp/cc2ffejw.s 			page 1


   1              		.cpu cortex-m3
   2              		.eabi_attribute 20, 1
   3              		.eabi_attribute 21, 1
   4              		.eabi_attribute 23, 3
   5              		.eabi_attribute 24, 1
   6              		.eabi_attribute 25, 1
   7              		.eabi_attribute 26, 1
   8              		.eabi_attribute 30, 1
   9              		.eabi_attribute 34, 1
  10              		.eabi_attribute 18, 4
  11              		.file	"stm32f1xx_hal_rtc.c"
  12              		.text
  13              	.Ltext0:
  14              		.cfi_sections	.debug_frame
  15              		.section	.text.RTC_ReadAlarmCounter,"ax",%progbits
  16              		.align	1
  17              		.syntax unified
  18              		.thumb
  19              		.thumb_func
  20              		.fpu softvfp
  22              	RTC_ReadAlarmCounter:
  23              	.LFB85:
  24              		.file 1 "Drivers/STM32F1xx_HAL_Driver/Src/stm32f1xx_hal_rtc.c"
   1:Drivers/STM32F1xx_HAL_Driver/Src/stm32f1xx_hal_rtc.c **** /**
   2:Drivers/STM32F1xx_HAL_Driver/Src/stm32f1xx_hal_rtc.c ****   ******************************************************************************
   3:Drivers/STM32F1xx_HAL_Driver/Src/stm32f1xx_hal_rtc.c ****   * @file    stm32f1xx_hal_rtc.c
   4:Drivers/STM32F1xx_HAL_Driver/Src/stm32f1xx_hal_rtc.c ****   * @author  MCD Application Team
   5:Drivers/STM32F1xx_HAL_Driver/Src/stm32f1xx_hal_rtc.c ****   * @brief   RTC HAL module driver.
   6:Drivers/STM32F1xx_HAL_Driver/Src/stm32f1xx_hal_rtc.c ****   *          This file provides firmware functions to manage the following 
   7:Drivers/STM32F1xx_HAL_Driver/Src/stm32f1xx_hal_rtc.c ****   *          functionalities of the Real Time Clock (RTC) peripheral:
   8:Drivers/STM32F1xx_HAL_Driver/Src/stm32f1xx_hal_rtc.c ****   *           + Initialization and de-initialization functions
   9:Drivers/STM32F1xx_HAL_Driver/Src/stm32f1xx_hal_rtc.c ****   *           + RTC Time and Date functions
  10:Drivers/STM32F1xx_HAL_Driver/Src/stm32f1xx_hal_rtc.c ****   *           + RTC Alarm functions
  11:Drivers/STM32F1xx_HAL_Driver/Src/stm32f1xx_hal_rtc.c ****   *           + Peripheral Control functions   
  12:Drivers/STM32F1xx_HAL_Driver/Src/stm32f1xx_hal_rtc.c ****   *           + Peripheral State functions
  13:Drivers/STM32F1xx_HAL_Driver/Src/stm32f1xx_hal_rtc.c ****   *         
  14:Drivers/STM32F1xx_HAL_Driver/Src/stm32f1xx_hal_rtc.c ****   @verbatim
  15:Drivers/STM32F1xx_HAL_Driver/Src/stm32f1xx_hal_rtc.c ****   ==============================================================================
  16:Drivers/STM32F1xx_HAL_Driver/Src/stm32f1xx_hal_rtc.c ****                   ##### How to use this driver #####
  17:Drivers/STM32F1xx_HAL_Driver/Src/stm32f1xx_hal_rtc.c ****   ==================================================================
  18:Drivers/STM32F1xx_HAL_Driver/Src/stm32f1xx_hal_rtc.c ****   [..] 
  19:Drivers/STM32F1xx_HAL_Driver/Src/stm32f1xx_hal_rtc.c ****     (+) Enable the RTC domain access (see description in the section above).
  20:Drivers/STM32F1xx_HAL_Driver/Src/stm32f1xx_hal_rtc.c ****     (+) Configure the RTC Prescaler (Asynchronous prescaler to generate RTC 1Hz time base) 
  21:Drivers/STM32F1xx_HAL_Driver/Src/stm32f1xx_hal_rtc.c ****         using the HAL_RTC_Init() function.
  22:Drivers/STM32F1xx_HAL_Driver/Src/stm32f1xx_hal_rtc.c ****   
  23:Drivers/STM32F1xx_HAL_Driver/Src/stm32f1xx_hal_rtc.c ****   *** Time and Date configuration ***
  24:Drivers/STM32F1xx_HAL_Driver/Src/stm32f1xx_hal_rtc.c ****   ===================================
  25:Drivers/STM32F1xx_HAL_Driver/Src/stm32f1xx_hal_rtc.c ****   [..] 
  26:Drivers/STM32F1xx_HAL_Driver/Src/stm32f1xx_hal_rtc.c ****     (+) To configure the RTC Calendar (Time and Date) use the HAL_RTC_SetTime() 
  27:Drivers/STM32F1xx_HAL_Driver/Src/stm32f1xx_hal_rtc.c ****         and HAL_RTC_SetDate() functions.
  28:Drivers/STM32F1xx_HAL_Driver/Src/stm32f1xx_hal_rtc.c ****     (+) To read the RTC Calendar, use the HAL_RTC_GetTime() and HAL_RTC_GetDate() functions.
  29:Drivers/STM32F1xx_HAL_Driver/Src/stm32f1xx_hal_rtc.c ****   
  30:Drivers/STM32F1xx_HAL_Driver/Src/stm32f1xx_hal_rtc.c ****   *** Alarm configuration ***
  31:Drivers/STM32F1xx_HAL_Driver/Src/stm32f1xx_hal_rtc.c ****   ===========================
  32:Drivers/STM32F1xx_HAL_Driver/Src/stm32f1xx_hal_rtc.c ****   [..]
  33:Drivers/STM32F1xx_HAL_Driver/Src/stm32f1xx_hal_rtc.c ****     (+) To configure the RTC Alarm use the HAL_RTC_SetAlarm() function. 
  34:Drivers/STM32F1xx_HAL_Driver/Src/stm32f1xx_hal_rtc.c ****         You can also configure the RTC Alarm with interrupt mode using the HAL_RTC_SetAlarm_IT() fu
ARM GAS  /tmp/cc2ffejw.s 			page 2


  35:Drivers/STM32F1xx_HAL_Driver/Src/stm32f1xx_hal_rtc.c ****     (+) To read the RTC Alarm, use the HAL_RTC_GetAlarm() function.
  36:Drivers/STM32F1xx_HAL_Driver/Src/stm32f1xx_hal_rtc.c ****   
  37:Drivers/STM32F1xx_HAL_Driver/Src/stm32f1xx_hal_rtc.c ****   *** Tamper configuration ***
  38:Drivers/STM32F1xx_HAL_Driver/Src/stm32f1xx_hal_rtc.c ****   ============================
  39:Drivers/STM32F1xx_HAL_Driver/Src/stm32f1xx_hal_rtc.c ****   [..]
  40:Drivers/STM32F1xx_HAL_Driver/Src/stm32f1xx_hal_rtc.c ****     (+) Enable the RTC Tamper and configure the Tamper Level using the 
  41:Drivers/STM32F1xx_HAL_Driver/Src/stm32f1xx_hal_rtc.c ****         HAL_RTCEx_SetTamper() function. You can configure RTC Tamper with interrupt
  42:Drivers/STM32F1xx_HAL_Driver/Src/stm32f1xx_hal_rtc.c ****         mode using HAL_RTCEx_SetTamper_IT() function.
  43:Drivers/STM32F1xx_HAL_Driver/Src/stm32f1xx_hal_rtc.c ****     (+) The TAMPER1 alternate function can be mapped to PC13
  44:Drivers/STM32F1xx_HAL_Driver/Src/stm32f1xx_hal_rtc.c **** 
  45:Drivers/STM32F1xx_HAL_Driver/Src/stm32f1xx_hal_rtc.c ****   *** Backup Data Registers configuration ***
  46:Drivers/STM32F1xx_HAL_Driver/Src/stm32f1xx_hal_rtc.c ****   ===========================================
  47:Drivers/STM32F1xx_HAL_Driver/Src/stm32f1xx_hal_rtc.c ****   [..]
  48:Drivers/STM32F1xx_HAL_Driver/Src/stm32f1xx_hal_rtc.c ****     (+) To write to the RTC Backup Data registers, use the HAL_RTCEx_BKUPWrite()
  49:Drivers/STM32F1xx_HAL_Driver/Src/stm32f1xx_hal_rtc.c ****         function.  
  50:Drivers/STM32F1xx_HAL_Driver/Src/stm32f1xx_hal_rtc.c ****     (+) To read the RTC Backup Data registers, use the HAL_RTCEx_BKUPRead()
  51:Drivers/STM32F1xx_HAL_Driver/Src/stm32f1xx_hal_rtc.c ****         function.
  52:Drivers/STM32F1xx_HAL_Driver/Src/stm32f1xx_hal_rtc.c ****      
  53:Drivers/STM32F1xx_HAL_Driver/Src/stm32f1xx_hal_rtc.c ****                   ##### WARNING: Drivers Restrictions  #####
  54:Drivers/STM32F1xx_HAL_Driver/Src/stm32f1xx_hal_rtc.c ****   ==================================================================
  55:Drivers/STM32F1xx_HAL_Driver/Src/stm32f1xx_hal_rtc.c ****   [..] RTC version used on STM32F1 families is version V1. All the features supported by V2
  56:Drivers/STM32F1xx_HAL_Driver/Src/stm32f1xx_hal_rtc.c ****        (other families) will be not supported on F1.
  57:Drivers/STM32F1xx_HAL_Driver/Src/stm32f1xx_hal_rtc.c ****   [..] As on V2, main RTC features are managed by HW. But on F1, date feature is completely 
  58:Drivers/STM32F1xx_HAL_Driver/Src/stm32f1xx_hal_rtc.c ****        managed by SW.
  59:Drivers/STM32F1xx_HAL_Driver/Src/stm32f1xx_hal_rtc.c ****   [..] Then, there are some restrictions compared to other families:
  60:Drivers/STM32F1xx_HAL_Driver/Src/stm32f1xx_hal_rtc.c ****     (+) Only format 24 hours supported in HAL (format 12 hours not supported)
  61:Drivers/STM32F1xx_HAL_Driver/Src/stm32f1xx_hal_rtc.c ****     (+) Date is saved in SRAM. Then, when MCU is in STOP or STANDBY mode, date will be lost.
  62:Drivers/STM32F1xx_HAL_Driver/Src/stm32f1xx_hal_rtc.c ****         User should implement a way to save date before entering in low power mode (an 
  63:Drivers/STM32F1xx_HAL_Driver/Src/stm32f1xx_hal_rtc.c ****         example is provided with firmware package based on backup registers)
  64:Drivers/STM32F1xx_HAL_Driver/Src/stm32f1xx_hal_rtc.c ****     (+) Date is automatically updated each time a HAL_RTC_GetTime or HAL_RTC_GetDate is called.
  65:Drivers/STM32F1xx_HAL_Driver/Src/stm32f1xx_hal_rtc.c ****     (+) Alarm detection is limited to 1 day. It will expire only 1 time (no alarm repetition, need
  66:Drivers/STM32F1xx_HAL_Driver/Src/stm32f1xx_hal_rtc.c ****         to program a new alarm)
  67:Drivers/STM32F1xx_HAL_Driver/Src/stm32f1xx_hal_rtc.c **** 
  68:Drivers/STM32F1xx_HAL_Driver/Src/stm32f1xx_hal_rtc.c ****               ##### Backup Domain Operating Condition #####
  69:Drivers/STM32F1xx_HAL_Driver/Src/stm32f1xx_hal_rtc.c ****   ==============================================================================
  70:Drivers/STM32F1xx_HAL_Driver/Src/stm32f1xx_hal_rtc.c ****   [..] The real-time clock (RTC) and the RTC backup registers can be powered
  71:Drivers/STM32F1xx_HAL_Driver/Src/stm32f1xx_hal_rtc.c ****        from the VBAT voltage when the main VDD supply is powered off.
  72:Drivers/STM32F1xx_HAL_Driver/Src/stm32f1xx_hal_rtc.c ****        To retain the content of the RTC backup registers and supply the RTC 
  73:Drivers/STM32F1xx_HAL_Driver/Src/stm32f1xx_hal_rtc.c ****        when VDD is turned off, VBAT pin can be connected to an optional 
  74:Drivers/STM32F1xx_HAL_Driver/Src/stm32f1xx_hal_rtc.c ****        standby voltage supplied by a battery or by another source.
  75:Drivers/STM32F1xx_HAL_Driver/Src/stm32f1xx_hal_rtc.c **** 
  76:Drivers/STM32F1xx_HAL_Driver/Src/stm32f1xx_hal_rtc.c ****   [..] To allow the RTC operating even when the main digital supply (VDD) is turned
  77:Drivers/STM32F1xx_HAL_Driver/Src/stm32f1xx_hal_rtc.c ****        off, the VBAT pin powers the following blocks:
  78:Drivers/STM32F1xx_HAL_Driver/Src/stm32f1xx_hal_rtc.c ****     (+) The RTC
  79:Drivers/STM32F1xx_HAL_Driver/Src/stm32f1xx_hal_rtc.c ****     (+) The LSE oscillator
  80:Drivers/STM32F1xx_HAL_Driver/Src/stm32f1xx_hal_rtc.c ****     (+) PC13 I/O
  81:Drivers/STM32F1xx_HAL_Driver/Src/stm32f1xx_hal_rtc.c ****   
  82:Drivers/STM32F1xx_HAL_Driver/Src/stm32f1xx_hal_rtc.c ****   [..] When the backup domain is supplied by VDD (analog switch connected to VDD),
  83:Drivers/STM32F1xx_HAL_Driver/Src/stm32f1xx_hal_rtc.c ****        the following pins are available:
  84:Drivers/STM32F1xx_HAL_Driver/Src/stm32f1xx_hal_rtc.c ****     (+) PC13 can be used as a Tamper pin
  85:Drivers/STM32F1xx_HAL_Driver/Src/stm32f1xx_hal_rtc.c ****   
  86:Drivers/STM32F1xx_HAL_Driver/Src/stm32f1xx_hal_rtc.c ****   [..] When the backup domain is supplied by VBAT (analog switch connected to VBAT 
  87:Drivers/STM32F1xx_HAL_Driver/Src/stm32f1xx_hal_rtc.c ****        because VDD is not present), the following pins are available:
  88:Drivers/STM32F1xx_HAL_Driver/Src/stm32f1xx_hal_rtc.c ****     (+) PC13 can be used as the Tamper pin 
  89:Drivers/STM32F1xx_HAL_Driver/Src/stm32f1xx_hal_rtc.c ****              
  90:Drivers/STM32F1xx_HAL_Driver/Src/stm32f1xx_hal_rtc.c ****                    ##### Backup Domain Reset #####
  91:Drivers/STM32F1xx_HAL_Driver/Src/stm32f1xx_hal_rtc.c ****   ==================================================================
ARM GAS  /tmp/cc2ffejw.s 			page 3


  92:Drivers/STM32F1xx_HAL_Driver/Src/stm32f1xx_hal_rtc.c ****   [..] The backup domain reset sets all RTC registers and the RCC_BDCR register
  93:Drivers/STM32F1xx_HAL_Driver/Src/stm32f1xx_hal_rtc.c ****        to their reset values. 
  94:Drivers/STM32F1xx_HAL_Driver/Src/stm32f1xx_hal_rtc.c ****   [..] A backup domain reset is generated when one of the following events occurs:
  95:Drivers/STM32F1xx_HAL_Driver/Src/stm32f1xx_hal_rtc.c ****     (#) Software reset, triggered by setting the BDRST bit in the 
  96:Drivers/STM32F1xx_HAL_Driver/Src/stm32f1xx_hal_rtc.c ****         RCC Backup domain control register (RCC_BDCR). 
  97:Drivers/STM32F1xx_HAL_Driver/Src/stm32f1xx_hal_rtc.c ****     (#) VDD or VBAT power on, if both supplies have previously been powered off.  
  98:Drivers/STM32F1xx_HAL_Driver/Src/stm32f1xx_hal_rtc.c ****     (#) Tamper detection event resets all data backup registers.
  99:Drivers/STM32F1xx_HAL_Driver/Src/stm32f1xx_hal_rtc.c **** 
 100:Drivers/STM32F1xx_HAL_Driver/Src/stm32f1xx_hal_rtc.c ****                    ##### Backup Domain Access #####
 101:Drivers/STM32F1xx_HAL_Driver/Src/stm32f1xx_hal_rtc.c ****   ==================================================================
 102:Drivers/STM32F1xx_HAL_Driver/Src/stm32f1xx_hal_rtc.c ****   [..] After reset, the backup domain (RTC registers, RTC backup data 
 103:Drivers/STM32F1xx_HAL_Driver/Src/stm32f1xx_hal_rtc.c ****        registers and backup SRAM) is protected against possible unwanted write 
 104:Drivers/STM32F1xx_HAL_Driver/Src/stm32f1xx_hal_rtc.c ****        accesses. 
 105:Drivers/STM32F1xx_HAL_Driver/Src/stm32f1xx_hal_rtc.c ****   [..] To enable access to the RTC Domain and RTC registers, proceed as follows:
 106:Drivers/STM32F1xx_HAL_Driver/Src/stm32f1xx_hal_rtc.c ****     (+) Call the function HAL_RCCEx_PeriphCLKConfig in using RCC_PERIPHCLK_RTC for
 107:Drivers/STM32F1xx_HAL_Driver/Src/stm32f1xx_hal_rtc.c ****         PeriphClockSelection and select RTCClockSelection (LSE, LSI or HSE)
 108:Drivers/STM32F1xx_HAL_Driver/Src/stm32f1xx_hal_rtc.c ****     (+) Enable the BKP clock in using __HAL_RCC_BKP_CLK_ENABLE()
 109:Drivers/STM32F1xx_HAL_Driver/Src/stm32f1xx_hal_rtc.c ****   
 110:Drivers/STM32F1xx_HAL_Driver/Src/stm32f1xx_hal_rtc.c ****                   ##### RTC and low power modes #####
 111:Drivers/STM32F1xx_HAL_Driver/Src/stm32f1xx_hal_rtc.c ****   ==================================================================
 112:Drivers/STM32F1xx_HAL_Driver/Src/stm32f1xx_hal_rtc.c ****   [..] The MCU can be woken up from a low power mode by an RTC alternate 
 113:Drivers/STM32F1xx_HAL_Driver/Src/stm32f1xx_hal_rtc.c ****        function.
 114:Drivers/STM32F1xx_HAL_Driver/Src/stm32f1xx_hal_rtc.c ****   [..] The RTC alternate functions are the RTC alarms (Alarm A), 
 115:Drivers/STM32F1xx_HAL_Driver/Src/stm32f1xx_hal_rtc.c ****        and RTC tamper event detection.
 116:Drivers/STM32F1xx_HAL_Driver/Src/stm32f1xx_hal_rtc.c ****        These RTC alternate functions can wake up the system from the Stop and 
 117:Drivers/STM32F1xx_HAL_Driver/Src/stm32f1xx_hal_rtc.c ****        Standby low power modes.
 118:Drivers/STM32F1xx_HAL_Driver/Src/stm32f1xx_hal_rtc.c ****   [..] The system can also wake up from low power modes without depending 
 119:Drivers/STM32F1xx_HAL_Driver/Src/stm32f1xx_hal_rtc.c ****        on an external interrupt (Auto-wakeup mode), by using the RTC alarm.
 120:Drivers/STM32F1xx_HAL_Driver/Src/stm32f1xx_hal_rtc.c ****      
 121:Drivers/STM32F1xx_HAL_Driver/Src/stm32f1xx_hal_rtc.c ****    @endverbatim
 122:Drivers/STM32F1xx_HAL_Driver/Src/stm32f1xx_hal_rtc.c ****   ******************************************************************************
 123:Drivers/STM32F1xx_HAL_Driver/Src/stm32f1xx_hal_rtc.c ****   * @attention
 124:Drivers/STM32F1xx_HAL_Driver/Src/stm32f1xx_hal_rtc.c ****   *
 125:Drivers/STM32F1xx_HAL_Driver/Src/stm32f1xx_hal_rtc.c ****   * <h2><center>&copy; COPYRIGHT(c) 2016 STMicroelectronics</center></h2>
 126:Drivers/STM32F1xx_HAL_Driver/Src/stm32f1xx_hal_rtc.c ****   *
 127:Drivers/STM32F1xx_HAL_Driver/Src/stm32f1xx_hal_rtc.c ****   * Redistribution and use in source and binary forms, with or without modification,
 128:Drivers/STM32F1xx_HAL_Driver/Src/stm32f1xx_hal_rtc.c ****   * are permitted provided that the following conditions are met:
 129:Drivers/STM32F1xx_HAL_Driver/Src/stm32f1xx_hal_rtc.c ****   *   1. Redistributions of source code must retain the above copyright notice,
 130:Drivers/STM32F1xx_HAL_Driver/Src/stm32f1xx_hal_rtc.c ****   *      this list of conditions and the following disclaimer.
 131:Drivers/STM32F1xx_HAL_Driver/Src/stm32f1xx_hal_rtc.c ****   *   2. Redistributions in binary form must reproduce the above copyright notice,
 132:Drivers/STM32F1xx_HAL_Driver/Src/stm32f1xx_hal_rtc.c ****   *      this list of conditions and the following disclaimer in the documentation
 133:Drivers/STM32F1xx_HAL_Driver/Src/stm32f1xx_hal_rtc.c ****   *      and/or other materials provided with the distribution.
 134:Drivers/STM32F1xx_HAL_Driver/Src/stm32f1xx_hal_rtc.c ****   *   3. Neither the name of STMicroelectronics nor the names of its contributors
 135:Drivers/STM32F1xx_HAL_Driver/Src/stm32f1xx_hal_rtc.c ****   *      may be used to endorse or promote products derived from this software
 136:Drivers/STM32F1xx_HAL_Driver/Src/stm32f1xx_hal_rtc.c ****   *      without specific prior written permission.
 137:Drivers/STM32F1xx_HAL_Driver/Src/stm32f1xx_hal_rtc.c ****   *
 138:Drivers/STM32F1xx_HAL_Driver/Src/stm32f1xx_hal_rtc.c ****   * THIS SOFTWARE IS PROVIDED BY THE COPYRIGHT HOLDERS AND CONTRIBUTORS "AS IS"
 139:Drivers/STM32F1xx_HAL_Driver/Src/stm32f1xx_hal_rtc.c ****   * AND ANY EXPRESS OR IMPLIED WARRANTIES, INCLUDING, BUT NOT LIMITED TO, THE
 140:Drivers/STM32F1xx_HAL_Driver/Src/stm32f1xx_hal_rtc.c ****   * IMPLIED WARRANTIES OF MERCHANTABILITY AND FITNESS FOR A PARTICULAR PURPOSE ARE
 141:Drivers/STM32F1xx_HAL_Driver/Src/stm32f1xx_hal_rtc.c ****   * DISCLAIMED. IN NO EVENT SHALL THE COPYRIGHT HOLDER OR CONTRIBUTORS BE LIABLE
 142:Drivers/STM32F1xx_HAL_Driver/Src/stm32f1xx_hal_rtc.c ****   * FOR ANY DIRECT, INDIRECT, INCIDENTAL, SPECIAL, EXEMPLARY, OR CONSEQUENTIAL
 143:Drivers/STM32F1xx_HAL_Driver/Src/stm32f1xx_hal_rtc.c ****   * DAMAGES (INCLUDING, BUT NOT LIMITED TO, PROCUREMENT OF SUBSTITUTE GOODS OR
 144:Drivers/STM32F1xx_HAL_Driver/Src/stm32f1xx_hal_rtc.c ****   * SERVICES; LOSS OF USE, DATA, OR PROFITS; OR BUSINESS INTERRUPTION) HOWEVER
 145:Drivers/STM32F1xx_HAL_Driver/Src/stm32f1xx_hal_rtc.c ****   * CAUSED AND ON ANY THEORY OF LIABILITY, WHETHER IN CONTRACT, STRICT LIABILITY,
 146:Drivers/STM32F1xx_HAL_Driver/Src/stm32f1xx_hal_rtc.c ****   * OR TORT (INCLUDING NEGLIGENCE OR OTHERWISE) ARISING IN ANY WAY OUT OF THE USE
 147:Drivers/STM32F1xx_HAL_Driver/Src/stm32f1xx_hal_rtc.c ****   * OF THIS SOFTWARE, EVEN IF ADVISED OF THE POSSIBILITY OF SUCH DAMAGE.
 148:Drivers/STM32F1xx_HAL_Driver/Src/stm32f1xx_hal_rtc.c ****   *
ARM GAS  /tmp/cc2ffejw.s 			page 4


 149:Drivers/STM32F1xx_HAL_Driver/Src/stm32f1xx_hal_rtc.c ****   ******************************************************************************
 150:Drivers/STM32F1xx_HAL_Driver/Src/stm32f1xx_hal_rtc.c ****   */ 
 151:Drivers/STM32F1xx_HAL_Driver/Src/stm32f1xx_hal_rtc.c **** 
 152:Drivers/STM32F1xx_HAL_Driver/Src/stm32f1xx_hal_rtc.c **** /* Includes ------------------------------------------------------------------*/
 153:Drivers/STM32F1xx_HAL_Driver/Src/stm32f1xx_hal_rtc.c **** #include "stm32f1xx_hal.h"
 154:Drivers/STM32F1xx_HAL_Driver/Src/stm32f1xx_hal_rtc.c **** 
 155:Drivers/STM32F1xx_HAL_Driver/Src/stm32f1xx_hal_rtc.c **** /** @addtogroup STM32F1xx_HAL_Driver
 156:Drivers/STM32F1xx_HAL_Driver/Src/stm32f1xx_hal_rtc.c ****   * @{
 157:Drivers/STM32F1xx_HAL_Driver/Src/stm32f1xx_hal_rtc.c ****   */
 158:Drivers/STM32F1xx_HAL_Driver/Src/stm32f1xx_hal_rtc.c **** 
 159:Drivers/STM32F1xx_HAL_Driver/Src/stm32f1xx_hal_rtc.c **** /** @defgroup RTC RTC
 160:Drivers/STM32F1xx_HAL_Driver/Src/stm32f1xx_hal_rtc.c ****   * @brief RTC HAL module driver
 161:Drivers/STM32F1xx_HAL_Driver/Src/stm32f1xx_hal_rtc.c ****   * @{
 162:Drivers/STM32F1xx_HAL_Driver/Src/stm32f1xx_hal_rtc.c ****   */
 163:Drivers/STM32F1xx_HAL_Driver/Src/stm32f1xx_hal_rtc.c **** 
 164:Drivers/STM32F1xx_HAL_Driver/Src/stm32f1xx_hal_rtc.c **** #ifdef HAL_RTC_MODULE_ENABLED
 165:Drivers/STM32F1xx_HAL_Driver/Src/stm32f1xx_hal_rtc.c **** 
 166:Drivers/STM32F1xx_HAL_Driver/Src/stm32f1xx_hal_rtc.c **** /* Private typedef -----------------------------------------------------------*/
 167:Drivers/STM32F1xx_HAL_Driver/Src/stm32f1xx_hal_rtc.c **** /* Private define ------------------------------------------------------------*/
 168:Drivers/STM32F1xx_HAL_Driver/Src/stm32f1xx_hal_rtc.c **** /** @defgroup RTC_Private_Constants RTC Private Constants
 169:Drivers/STM32F1xx_HAL_Driver/Src/stm32f1xx_hal_rtc.c ****   * @{
 170:Drivers/STM32F1xx_HAL_Driver/Src/stm32f1xx_hal_rtc.c ****   */
 171:Drivers/STM32F1xx_HAL_Driver/Src/stm32f1xx_hal_rtc.c **** #define RTC_ALARM_RESETVALUE_REGISTER    (uint16_t)0xFFFF
 172:Drivers/STM32F1xx_HAL_Driver/Src/stm32f1xx_hal_rtc.c **** #define RTC_ALARM_RESETVALUE             0xFFFFFFFFU
 173:Drivers/STM32F1xx_HAL_Driver/Src/stm32f1xx_hal_rtc.c **** 
 174:Drivers/STM32F1xx_HAL_Driver/Src/stm32f1xx_hal_rtc.c **** /**
 175:Drivers/STM32F1xx_HAL_Driver/Src/stm32f1xx_hal_rtc.c ****   * @}
 176:Drivers/STM32F1xx_HAL_Driver/Src/stm32f1xx_hal_rtc.c ****   */
 177:Drivers/STM32F1xx_HAL_Driver/Src/stm32f1xx_hal_rtc.c **** 
 178:Drivers/STM32F1xx_HAL_Driver/Src/stm32f1xx_hal_rtc.c **** /* Private macro -------------------------------------------------------------*/
 179:Drivers/STM32F1xx_HAL_Driver/Src/stm32f1xx_hal_rtc.c **** /** @defgroup RTC_Private_Macros RTC Private Macros
 180:Drivers/STM32F1xx_HAL_Driver/Src/stm32f1xx_hal_rtc.c ****   * @{
 181:Drivers/STM32F1xx_HAL_Driver/Src/stm32f1xx_hal_rtc.c ****   */
 182:Drivers/STM32F1xx_HAL_Driver/Src/stm32f1xx_hal_rtc.c **** /**
 183:Drivers/STM32F1xx_HAL_Driver/Src/stm32f1xx_hal_rtc.c ****   * @}
 184:Drivers/STM32F1xx_HAL_Driver/Src/stm32f1xx_hal_rtc.c ****   */
 185:Drivers/STM32F1xx_HAL_Driver/Src/stm32f1xx_hal_rtc.c **** 
 186:Drivers/STM32F1xx_HAL_Driver/Src/stm32f1xx_hal_rtc.c **** /* Private variables ---------------------------------------------------------*/
 187:Drivers/STM32F1xx_HAL_Driver/Src/stm32f1xx_hal_rtc.c **** /* Private function prototypes -----------------------------------------------*/
 188:Drivers/STM32F1xx_HAL_Driver/Src/stm32f1xx_hal_rtc.c **** /** @defgroup RTC_Private_Functions RTC Private Functions
 189:Drivers/STM32F1xx_HAL_Driver/Src/stm32f1xx_hal_rtc.c ****   * @{
 190:Drivers/STM32F1xx_HAL_Driver/Src/stm32f1xx_hal_rtc.c ****   */
 191:Drivers/STM32F1xx_HAL_Driver/Src/stm32f1xx_hal_rtc.c **** // static uint32_t           RTC_ReadTimeCounter(RTC_HandleTypeDef* hrtc);
 192:Drivers/STM32F1xx_HAL_Driver/Src/stm32f1xx_hal_rtc.c **** static HAL_StatusTypeDef  RTC_WriteTimeCounter(RTC_HandleTypeDef* hrtc, uint32_t TimeCounter);
 193:Drivers/STM32F1xx_HAL_Driver/Src/stm32f1xx_hal_rtc.c **** static uint32_t           RTC_ReadAlarmCounter(RTC_HandleTypeDef* hrtc);
 194:Drivers/STM32F1xx_HAL_Driver/Src/stm32f1xx_hal_rtc.c **** static HAL_StatusTypeDef  RTC_WriteAlarmCounter(RTC_HandleTypeDef* hrtc, uint32_t AlarmCounter);
 195:Drivers/STM32F1xx_HAL_Driver/Src/stm32f1xx_hal_rtc.c **** static HAL_StatusTypeDef  RTC_EnterInitMode(RTC_HandleTypeDef* hrtc);
 196:Drivers/STM32F1xx_HAL_Driver/Src/stm32f1xx_hal_rtc.c **** static HAL_StatusTypeDef  RTC_ExitInitMode(RTC_HandleTypeDef* hrtc);
 197:Drivers/STM32F1xx_HAL_Driver/Src/stm32f1xx_hal_rtc.c **** static uint8_t            RTC_ByteToBcd2(uint8_t Value);
 198:Drivers/STM32F1xx_HAL_Driver/Src/stm32f1xx_hal_rtc.c **** static uint8_t            RTC_Bcd2ToByte(uint8_t Value);
 199:Drivers/STM32F1xx_HAL_Driver/Src/stm32f1xx_hal_rtc.c **** static uint8_t            RTC_IsLeapYear(uint16_t nYear);
 200:Drivers/STM32F1xx_HAL_Driver/Src/stm32f1xx_hal_rtc.c **** static void               RTC_DateUpdate(RTC_HandleTypeDef* hrtc, uint32_t DayElapsed);
 201:Drivers/STM32F1xx_HAL_Driver/Src/stm32f1xx_hal_rtc.c **** static uint8_t            RTC_WeekDayNum(uint32_t nYear, uint8_t nMonth, uint8_t nDay);
 202:Drivers/STM32F1xx_HAL_Driver/Src/stm32f1xx_hal_rtc.c **** 
 203:Drivers/STM32F1xx_HAL_Driver/Src/stm32f1xx_hal_rtc.c **** /**
 204:Drivers/STM32F1xx_HAL_Driver/Src/stm32f1xx_hal_rtc.c ****   * @}
 205:Drivers/STM32F1xx_HAL_Driver/Src/stm32f1xx_hal_rtc.c ****   */
ARM GAS  /tmp/cc2ffejw.s 			page 5


 206:Drivers/STM32F1xx_HAL_Driver/Src/stm32f1xx_hal_rtc.c **** 
 207:Drivers/STM32F1xx_HAL_Driver/Src/stm32f1xx_hal_rtc.c **** /* Private functions ---------------------------------------------------------*/
 208:Drivers/STM32F1xx_HAL_Driver/Src/stm32f1xx_hal_rtc.c **** /** @defgroup RTC_Exported_Functions RTC Exported Functions
 209:Drivers/STM32F1xx_HAL_Driver/Src/stm32f1xx_hal_rtc.c ****   * @{
 210:Drivers/STM32F1xx_HAL_Driver/Src/stm32f1xx_hal_rtc.c ****   */
 211:Drivers/STM32F1xx_HAL_Driver/Src/stm32f1xx_hal_rtc.c ****   
 212:Drivers/STM32F1xx_HAL_Driver/Src/stm32f1xx_hal_rtc.c **** /** @defgroup RTC_Exported_Functions_Group1 Initialization and de-initialization functions 
 213:Drivers/STM32F1xx_HAL_Driver/Src/stm32f1xx_hal_rtc.c ****  *  @brief    Initialization and Configuration functions 
 214:Drivers/STM32F1xx_HAL_Driver/Src/stm32f1xx_hal_rtc.c ****  *
 215:Drivers/STM32F1xx_HAL_Driver/Src/stm32f1xx_hal_rtc.c **** @verbatim    
 216:Drivers/STM32F1xx_HAL_Driver/Src/stm32f1xx_hal_rtc.c ****  ===============================================================================
 217:Drivers/STM32F1xx_HAL_Driver/Src/stm32f1xx_hal_rtc.c ****               ##### Initialization and de-initialization functions #####
 218:Drivers/STM32F1xx_HAL_Driver/Src/stm32f1xx_hal_rtc.c ****  ===============================================================================
 219:Drivers/STM32F1xx_HAL_Driver/Src/stm32f1xx_hal_rtc.c ****    [..] This section provides functions allowing to initialize and configure the 
 220:Drivers/STM32F1xx_HAL_Driver/Src/stm32f1xx_hal_rtc.c ****          RTC Prescaler (Asynchronous), disable RTC registers Write protection, 
 221:Drivers/STM32F1xx_HAL_Driver/Src/stm32f1xx_hal_rtc.c ****          enter and exit the RTC initialization mode, 
 222:Drivers/STM32F1xx_HAL_Driver/Src/stm32f1xx_hal_rtc.c ****          RTC registers synchronization check and reference clock detection enable.
 223:Drivers/STM32F1xx_HAL_Driver/Src/stm32f1xx_hal_rtc.c ****          (#) The RTC Prescaler should be programmed to generate the RTC 1Hz time base. 
 224:Drivers/STM32F1xx_HAL_Driver/Src/stm32f1xx_hal_rtc.c ****          (#) All RTC registers are Write protected. Writing to the RTC registers
 225:Drivers/STM32F1xx_HAL_Driver/Src/stm32f1xx_hal_rtc.c ****              is enabled by setting the CNF bit in the RTC_CRL register.
 226:Drivers/STM32F1xx_HAL_Driver/Src/stm32f1xx_hal_rtc.c ****          (#) To read the calendar after wakeup from low power modes (Standby or Stop) 
 227:Drivers/STM32F1xx_HAL_Driver/Src/stm32f1xx_hal_rtc.c ****              the software must first wait for the RSF bit (Register Synchronized Flag) 
 228:Drivers/STM32F1xx_HAL_Driver/Src/stm32f1xx_hal_rtc.c ****              in the RTC_CRL register to be set by hardware.
 229:Drivers/STM32F1xx_HAL_Driver/Src/stm32f1xx_hal_rtc.c ****              The HAL_RTC_WaitForSynchro() function implements the above software 
 230:Drivers/STM32F1xx_HAL_Driver/Src/stm32f1xx_hal_rtc.c ****              sequence (RSF clear and RSF check).
 231:Drivers/STM32F1xx_HAL_Driver/Src/stm32f1xx_hal_rtc.c ****  
 232:Drivers/STM32F1xx_HAL_Driver/Src/stm32f1xx_hal_rtc.c **** @endverbatim
 233:Drivers/STM32F1xx_HAL_Driver/Src/stm32f1xx_hal_rtc.c ****   * @{
 234:Drivers/STM32F1xx_HAL_Driver/Src/stm32f1xx_hal_rtc.c ****   */
 235:Drivers/STM32F1xx_HAL_Driver/Src/stm32f1xx_hal_rtc.c **** 
 236:Drivers/STM32F1xx_HAL_Driver/Src/stm32f1xx_hal_rtc.c **** /**
 237:Drivers/STM32F1xx_HAL_Driver/Src/stm32f1xx_hal_rtc.c ****   * @brief  Initializes the RTC peripheral 
 238:Drivers/STM32F1xx_HAL_Driver/Src/stm32f1xx_hal_rtc.c ****   * @param  hrtc   pointer to a RTC_HandleTypeDef structure that contains
 239:Drivers/STM32F1xx_HAL_Driver/Src/stm32f1xx_hal_rtc.c ****   *                the configuration information for RTC.
 240:Drivers/STM32F1xx_HAL_Driver/Src/stm32f1xx_hal_rtc.c ****   * @retval HAL status
 241:Drivers/STM32F1xx_HAL_Driver/Src/stm32f1xx_hal_rtc.c ****   */
 242:Drivers/STM32F1xx_HAL_Driver/Src/stm32f1xx_hal_rtc.c **** HAL_StatusTypeDef HAL_RTC_Init(RTC_HandleTypeDef *hrtc)
 243:Drivers/STM32F1xx_HAL_Driver/Src/stm32f1xx_hal_rtc.c **** {
 244:Drivers/STM32F1xx_HAL_Driver/Src/stm32f1xx_hal_rtc.c ****   uint32_t prescaler = 0U;
 245:Drivers/STM32F1xx_HAL_Driver/Src/stm32f1xx_hal_rtc.c ****   /* Check input parameters */
 246:Drivers/STM32F1xx_HAL_Driver/Src/stm32f1xx_hal_rtc.c ****   if(hrtc == NULL)
 247:Drivers/STM32F1xx_HAL_Driver/Src/stm32f1xx_hal_rtc.c ****   {
 248:Drivers/STM32F1xx_HAL_Driver/Src/stm32f1xx_hal_rtc.c ****      return HAL_ERROR;
 249:Drivers/STM32F1xx_HAL_Driver/Src/stm32f1xx_hal_rtc.c ****   }
 250:Drivers/STM32F1xx_HAL_Driver/Src/stm32f1xx_hal_rtc.c ****   
 251:Drivers/STM32F1xx_HAL_Driver/Src/stm32f1xx_hal_rtc.c ****   /* Check the parameters */
 252:Drivers/STM32F1xx_HAL_Driver/Src/stm32f1xx_hal_rtc.c ****   assert_param(IS_RTC_ALL_INSTANCE(hrtc->Instance));
 253:Drivers/STM32F1xx_HAL_Driver/Src/stm32f1xx_hal_rtc.c ****   assert_param(IS_RTC_CALIB_OUTPUT(hrtc->Init.OutPut));
 254:Drivers/STM32F1xx_HAL_Driver/Src/stm32f1xx_hal_rtc.c ****   assert_param(IS_RTC_ASYNCH_PREDIV(hrtc->Init.AsynchPrediv));
 255:Drivers/STM32F1xx_HAL_Driver/Src/stm32f1xx_hal_rtc.c ****     
 256:Drivers/STM32F1xx_HAL_Driver/Src/stm32f1xx_hal_rtc.c ****   if(hrtc->State == HAL_RTC_STATE_RESET)
 257:Drivers/STM32F1xx_HAL_Driver/Src/stm32f1xx_hal_rtc.c ****   {
 258:Drivers/STM32F1xx_HAL_Driver/Src/stm32f1xx_hal_rtc.c ****     /* Allocate lock resource and initialize it */
 259:Drivers/STM32F1xx_HAL_Driver/Src/stm32f1xx_hal_rtc.c ****     hrtc->Lock = HAL_UNLOCKED;
 260:Drivers/STM32F1xx_HAL_Driver/Src/stm32f1xx_hal_rtc.c ****     
 261:Drivers/STM32F1xx_HAL_Driver/Src/stm32f1xx_hal_rtc.c ****     /* Initialize RTC MSP */
 262:Drivers/STM32F1xx_HAL_Driver/Src/stm32f1xx_hal_rtc.c ****     HAL_RTC_MspInit(hrtc);
ARM GAS  /tmp/cc2ffejw.s 			page 6


 263:Drivers/STM32F1xx_HAL_Driver/Src/stm32f1xx_hal_rtc.c ****   }
 264:Drivers/STM32F1xx_HAL_Driver/Src/stm32f1xx_hal_rtc.c ****   
 265:Drivers/STM32F1xx_HAL_Driver/Src/stm32f1xx_hal_rtc.c ****   /* Set RTC state */  
 266:Drivers/STM32F1xx_HAL_Driver/Src/stm32f1xx_hal_rtc.c ****   hrtc->State = HAL_RTC_STATE_BUSY;  
 267:Drivers/STM32F1xx_HAL_Driver/Src/stm32f1xx_hal_rtc.c ****        
 268:Drivers/STM32F1xx_HAL_Driver/Src/stm32f1xx_hal_rtc.c ****   /* Waiting for synchro */
 269:Drivers/STM32F1xx_HAL_Driver/Src/stm32f1xx_hal_rtc.c ****   if(HAL_RTC_WaitForSynchro(hrtc) != HAL_OK)
 270:Drivers/STM32F1xx_HAL_Driver/Src/stm32f1xx_hal_rtc.c ****   {
 271:Drivers/STM32F1xx_HAL_Driver/Src/stm32f1xx_hal_rtc.c ****     /* Set RTC state */
 272:Drivers/STM32F1xx_HAL_Driver/Src/stm32f1xx_hal_rtc.c ****     hrtc->State = HAL_RTC_STATE_ERROR;
 273:Drivers/STM32F1xx_HAL_Driver/Src/stm32f1xx_hal_rtc.c ****     
 274:Drivers/STM32F1xx_HAL_Driver/Src/stm32f1xx_hal_rtc.c ****     return HAL_ERROR;
 275:Drivers/STM32F1xx_HAL_Driver/Src/stm32f1xx_hal_rtc.c ****   } 
 276:Drivers/STM32F1xx_HAL_Driver/Src/stm32f1xx_hal_rtc.c **** 
 277:Drivers/STM32F1xx_HAL_Driver/Src/stm32f1xx_hal_rtc.c ****   /* Set Initialization mode */
 278:Drivers/STM32F1xx_HAL_Driver/Src/stm32f1xx_hal_rtc.c ****   if(RTC_EnterInitMode(hrtc) != HAL_OK)
 279:Drivers/STM32F1xx_HAL_Driver/Src/stm32f1xx_hal_rtc.c ****   {
 280:Drivers/STM32F1xx_HAL_Driver/Src/stm32f1xx_hal_rtc.c ****     /* Set RTC state */
 281:Drivers/STM32F1xx_HAL_Driver/Src/stm32f1xx_hal_rtc.c ****     hrtc->State = HAL_RTC_STATE_ERROR;
 282:Drivers/STM32F1xx_HAL_Driver/Src/stm32f1xx_hal_rtc.c ****     
 283:Drivers/STM32F1xx_HAL_Driver/Src/stm32f1xx_hal_rtc.c ****     return HAL_ERROR;
 284:Drivers/STM32F1xx_HAL_Driver/Src/stm32f1xx_hal_rtc.c ****   } 
 285:Drivers/STM32F1xx_HAL_Driver/Src/stm32f1xx_hal_rtc.c ****   else
 286:Drivers/STM32F1xx_HAL_Driver/Src/stm32f1xx_hal_rtc.c ****   { 
 287:Drivers/STM32F1xx_HAL_Driver/Src/stm32f1xx_hal_rtc.c ****     /* Clear Flags Bits */
 288:Drivers/STM32F1xx_HAL_Driver/Src/stm32f1xx_hal_rtc.c ****     CLEAR_BIT(hrtc->Instance->CRL, (RTC_FLAG_OW | RTC_FLAG_ALRAF | RTC_FLAG_SEC));
 289:Drivers/STM32F1xx_HAL_Driver/Src/stm32f1xx_hal_rtc.c ****     
 290:Drivers/STM32F1xx_HAL_Driver/Src/stm32f1xx_hal_rtc.c ****     if(hrtc->Init.OutPut != RTC_OUTPUTSOURCE_NONE)
 291:Drivers/STM32F1xx_HAL_Driver/Src/stm32f1xx_hal_rtc.c ****     {
 292:Drivers/STM32F1xx_HAL_Driver/Src/stm32f1xx_hal_rtc.c ****       /* Disable the selected Tamper pin */
 293:Drivers/STM32F1xx_HAL_Driver/Src/stm32f1xx_hal_rtc.c ****       CLEAR_BIT(BKP->CR, BKP_CR_TPE);
 294:Drivers/STM32F1xx_HAL_Driver/Src/stm32f1xx_hal_rtc.c ****     }
 295:Drivers/STM32F1xx_HAL_Driver/Src/stm32f1xx_hal_rtc.c ****     
 296:Drivers/STM32F1xx_HAL_Driver/Src/stm32f1xx_hal_rtc.c ****     /* Set the signal which will be routed to RTC Tamper pin*/
 297:Drivers/STM32F1xx_HAL_Driver/Src/stm32f1xx_hal_rtc.c ****     MODIFY_REG(BKP->RTCCR, (BKP_RTCCR_CCO | BKP_RTCCR_ASOE | BKP_RTCCR_ASOS), hrtc->Init.OutPut);
 298:Drivers/STM32F1xx_HAL_Driver/Src/stm32f1xx_hal_rtc.c **** 
 299:Drivers/STM32F1xx_HAL_Driver/Src/stm32f1xx_hal_rtc.c ****     if (hrtc->Init.AsynchPrediv != RTC_AUTO_1_SECOND)
 300:Drivers/STM32F1xx_HAL_Driver/Src/stm32f1xx_hal_rtc.c ****     {
 301:Drivers/STM32F1xx_HAL_Driver/Src/stm32f1xx_hal_rtc.c ****       /* RTC Prescaler provided directly by end-user*/
 302:Drivers/STM32F1xx_HAL_Driver/Src/stm32f1xx_hal_rtc.c ****       prescaler = hrtc->Init.AsynchPrediv;
 303:Drivers/STM32F1xx_HAL_Driver/Src/stm32f1xx_hal_rtc.c ****     }
 304:Drivers/STM32F1xx_HAL_Driver/Src/stm32f1xx_hal_rtc.c ****     else
 305:Drivers/STM32F1xx_HAL_Driver/Src/stm32f1xx_hal_rtc.c ****     {
 306:Drivers/STM32F1xx_HAL_Driver/Src/stm32f1xx_hal_rtc.c ****       /* RTC Prescaler will be automatically calculated to get 1 second timebase */
 307:Drivers/STM32F1xx_HAL_Driver/Src/stm32f1xx_hal_rtc.c ****       /* Get the RTCCLK frequency */
 308:Drivers/STM32F1xx_HAL_Driver/Src/stm32f1xx_hal_rtc.c ****       prescaler = HAL_RCCEx_GetPeriphCLKFreq(RCC_PERIPHCLK_RTC);
 309:Drivers/STM32F1xx_HAL_Driver/Src/stm32f1xx_hal_rtc.c **** 
 310:Drivers/STM32F1xx_HAL_Driver/Src/stm32f1xx_hal_rtc.c ****       /* Check that RTC clock is enabled*/
 311:Drivers/STM32F1xx_HAL_Driver/Src/stm32f1xx_hal_rtc.c ****       if (prescaler == 0U)
 312:Drivers/STM32F1xx_HAL_Driver/Src/stm32f1xx_hal_rtc.c ****       {
 313:Drivers/STM32F1xx_HAL_Driver/Src/stm32f1xx_hal_rtc.c ****         /* Should not happen. Frequency is not available*/
 314:Drivers/STM32F1xx_HAL_Driver/Src/stm32f1xx_hal_rtc.c ****         hrtc->State = HAL_RTC_STATE_ERROR;
 315:Drivers/STM32F1xx_HAL_Driver/Src/stm32f1xx_hal_rtc.c ****         return HAL_ERROR;
 316:Drivers/STM32F1xx_HAL_Driver/Src/stm32f1xx_hal_rtc.c ****       }
 317:Drivers/STM32F1xx_HAL_Driver/Src/stm32f1xx_hal_rtc.c ****       else
 318:Drivers/STM32F1xx_HAL_Driver/Src/stm32f1xx_hal_rtc.c ****       {
 319:Drivers/STM32F1xx_HAL_Driver/Src/stm32f1xx_hal_rtc.c ****         /* RTC period = RTCCLK/(RTC_PR + 1) */
ARM GAS  /tmp/cc2ffejw.s 			page 7


 320:Drivers/STM32F1xx_HAL_Driver/Src/stm32f1xx_hal_rtc.c ****         prescaler = prescaler - 1U;
 321:Drivers/STM32F1xx_HAL_Driver/Src/stm32f1xx_hal_rtc.c ****       }
 322:Drivers/STM32F1xx_HAL_Driver/Src/stm32f1xx_hal_rtc.c ****     }
 323:Drivers/STM32F1xx_HAL_Driver/Src/stm32f1xx_hal_rtc.c ****     
 324:Drivers/STM32F1xx_HAL_Driver/Src/stm32f1xx_hal_rtc.c ****     /* Configure the RTC_PRLH / RTC_PRLL */
 325:Drivers/STM32F1xx_HAL_Driver/Src/stm32f1xx_hal_rtc.c ****     MODIFY_REG(hrtc->Instance->PRLH, RTC_PRLH_PRL, (prescaler >> 16U));
 326:Drivers/STM32F1xx_HAL_Driver/Src/stm32f1xx_hal_rtc.c ****     MODIFY_REG(hrtc->Instance->PRLL, RTC_PRLL_PRL, (prescaler & RTC_PRLL_PRL));
 327:Drivers/STM32F1xx_HAL_Driver/Src/stm32f1xx_hal_rtc.c ****       
 328:Drivers/STM32F1xx_HAL_Driver/Src/stm32f1xx_hal_rtc.c ****     /* Wait for synchro */
 329:Drivers/STM32F1xx_HAL_Driver/Src/stm32f1xx_hal_rtc.c ****     if(RTC_ExitInitMode(hrtc) != HAL_OK)
 330:Drivers/STM32F1xx_HAL_Driver/Src/stm32f1xx_hal_rtc.c ****     {       
 331:Drivers/STM32F1xx_HAL_Driver/Src/stm32f1xx_hal_rtc.c ****       hrtc->State = HAL_RTC_STATE_ERROR;
 332:Drivers/STM32F1xx_HAL_Driver/Src/stm32f1xx_hal_rtc.c ****       
 333:Drivers/STM32F1xx_HAL_Driver/Src/stm32f1xx_hal_rtc.c ****       return HAL_ERROR;
 334:Drivers/STM32F1xx_HAL_Driver/Src/stm32f1xx_hal_rtc.c ****     }
 335:Drivers/STM32F1xx_HAL_Driver/Src/stm32f1xx_hal_rtc.c ****     
 336:Drivers/STM32F1xx_HAL_Driver/Src/stm32f1xx_hal_rtc.c ****     /* Initialize date to 1st of January 2000 */
 337:Drivers/STM32F1xx_HAL_Driver/Src/stm32f1xx_hal_rtc.c ****     hrtc->DateToUpdate.Year = 0x00U;
 338:Drivers/STM32F1xx_HAL_Driver/Src/stm32f1xx_hal_rtc.c ****     hrtc->DateToUpdate.Month = RTC_MONTH_JANUARY;
 339:Drivers/STM32F1xx_HAL_Driver/Src/stm32f1xx_hal_rtc.c ****     hrtc->DateToUpdate.Date = 0x01U;
 340:Drivers/STM32F1xx_HAL_Driver/Src/stm32f1xx_hal_rtc.c **** 
 341:Drivers/STM32F1xx_HAL_Driver/Src/stm32f1xx_hal_rtc.c ****     /* Set RTC state */
 342:Drivers/STM32F1xx_HAL_Driver/Src/stm32f1xx_hal_rtc.c ****     hrtc->State = HAL_RTC_STATE_READY;
 343:Drivers/STM32F1xx_HAL_Driver/Src/stm32f1xx_hal_rtc.c ****     
 344:Drivers/STM32F1xx_HAL_Driver/Src/stm32f1xx_hal_rtc.c ****     return HAL_OK;
 345:Drivers/STM32F1xx_HAL_Driver/Src/stm32f1xx_hal_rtc.c ****   }
 346:Drivers/STM32F1xx_HAL_Driver/Src/stm32f1xx_hal_rtc.c **** }
 347:Drivers/STM32F1xx_HAL_Driver/Src/stm32f1xx_hal_rtc.c **** 
 348:Drivers/STM32F1xx_HAL_Driver/Src/stm32f1xx_hal_rtc.c **** /**
 349:Drivers/STM32F1xx_HAL_Driver/Src/stm32f1xx_hal_rtc.c ****   * @brief  DeInitializes the RTC peripheral 
 350:Drivers/STM32F1xx_HAL_Driver/Src/stm32f1xx_hal_rtc.c ****   * @param  hrtc   pointer to a RTC_HandleTypeDef structure that contains
 351:Drivers/STM32F1xx_HAL_Driver/Src/stm32f1xx_hal_rtc.c ****   *                the configuration information for RTC.
 352:Drivers/STM32F1xx_HAL_Driver/Src/stm32f1xx_hal_rtc.c ****   * @note   This function does not reset the RTC Backup Data registers.   
 353:Drivers/STM32F1xx_HAL_Driver/Src/stm32f1xx_hal_rtc.c ****   * @retval HAL status
 354:Drivers/STM32F1xx_HAL_Driver/Src/stm32f1xx_hal_rtc.c ****   */
 355:Drivers/STM32F1xx_HAL_Driver/Src/stm32f1xx_hal_rtc.c **** HAL_StatusTypeDef HAL_RTC_DeInit(RTC_HandleTypeDef *hrtc)
 356:Drivers/STM32F1xx_HAL_Driver/Src/stm32f1xx_hal_rtc.c **** {
 357:Drivers/STM32F1xx_HAL_Driver/Src/stm32f1xx_hal_rtc.c ****   /* Check input parameters */
 358:Drivers/STM32F1xx_HAL_Driver/Src/stm32f1xx_hal_rtc.c ****   if(hrtc == NULL)
 359:Drivers/STM32F1xx_HAL_Driver/Src/stm32f1xx_hal_rtc.c ****   {
 360:Drivers/STM32F1xx_HAL_Driver/Src/stm32f1xx_hal_rtc.c ****      return HAL_ERROR;
 361:Drivers/STM32F1xx_HAL_Driver/Src/stm32f1xx_hal_rtc.c ****   }
 362:Drivers/STM32F1xx_HAL_Driver/Src/stm32f1xx_hal_rtc.c ****   
 363:Drivers/STM32F1xx_HAL_Driver/Src/stm32f1xx_hal_rtc.c ****   /* Check the parameters */
 364:Drivers/STM32F1xx_HAL_Driver/Src/stm32f1xx_hal_rtc.c ****   assert_param(IS_RTC_ALL_INSTANCE(hrtc->Instance));
 365:Drivers/STM32F1xx_HAL_Driver/Src/stm32f1xx_hal_rtc.c **** 
 366:Drivers/STM32F1xx_HAL_Driver/Src/stm32f1xx_hal_rtc.c ****   /* Set RTC state */
 367:Drivers/STM32F1xx_HAL_Driver/Src/stm32f1xx_hal_rtc.c ****   hrtc->State = HAL_RTC_STATE_BUSY; 
 368:Drivers/STM32F1xx_HAL_Driver/Src/stm32f1xx_hal_rtc.c ****   
 369:Drivers/STM32F1xx_HAL_Driver/Src/stm32f1xx_hal_rtc.c ****   /* Set Initialization mode */
 370:Drivers/STM32F1xx_HAL_Driver/Src/stm32f1xx_hal_rtc.c ****   if(RTC_EnterInitMode(hrtc) != HAL_OK)
 371:Drivers/STM32F1xx_HAL_Driver/Src/stm32f1xx_hal_rtc.c ****   {
 372:Drivers/STM32F1xx_HAL_Driver/Src/stm32f1xx_hal_rtc.c ****     /* Set RTC state */
 373:Drivers/STM32F1xx_HAL_Driver/Src/stm32f1xx_hal_rtc.c ****     hrtc->State = HAL_RTC_STATE_ERROR;
 374:Drivers/STM32F1xx_HAL_Driver/Src/stm32f1xx_hal_rtc.c ****     
 375:Drivers/STM32F1xx_HAL_Driver/Src/stm32f1xx_hal_rtc.c ****     /* Release Lock */
 376:Drivers/STM32F1xx_HAL_Driver/Src/stm32f1xx_hal_rtc.c ****     __HAL_UNLOCK(hrtc);
ARM GAS  /tmp/cc2ffejw.s 			page 8


 377:Drivers/STM32F1xx_HAL_Driver/Src/stm32f1xx_hal_rtc.c **** 
 378:Drivers/STM32F1xx_HAL_Driver/Src/stm32f1xx_hal_rtc.c ****     return HAL_ERROR;
 379:Drivers/STM32F1xx_HAL_Driver/Src/stm32f1xx_hal_rtc.c ****   }  
 380:Drivers/STM32F1xx_HAL_Driver/Src/stm32f1xx_hal_rtc.c ****   else
 381:Drivers/STM32F1xx_HAL_Driver/Src/stm32f1xx_hal_rtc.c ****   {
 382:Drivers/STM32F1xx_HAL_Driver/Src/stm32f1xx_hal_rtc.c ****     CLEAR_REG(hrtc->Instance->CNTL);
 383:Drivers/STM32F1xx_HAL_Driver/Src/stm32f1xx_hal_rtc.c ****     CLEAR_REG(hrtc->Instance->CNTH);
 384:Drivers/STM32F1xx_HAL_Driver/Src/stm32f1xx_hal_rtc.c ****     WRITE_REG(hrtc->Instance->PRLL, 0x00008000U);
 385:Drivers/STM32F1xx_HAL_Driver/Src/stm32f1xx_hal_rtc.c ****     CLEAR_REG(hrtc->Instance->PRLH);
 386:Drivers/STM32F1xx_HAL_Driver/Src/stm32f1xx_hal_rtc.c **** 
 387:Drivers/STM32F1xx_HAL_Driver/Src/stm32f1xx_hal_rtc.c ****     /* Reset All CRH/CRL bits */
 388:Drivers/STM32F1xx_HAL_Driver/Src/stm32f1xx_hal_rtc.c ****     CLEAR_REG(hrtc->Instance->CRH);
 389:Drivers/STM32F1xx_HAL_Driver/Src/stm32f1xx_hal_rtc.c ****     CLEAR_REG(hrtc->Instance->CRL);
 390:Drivers/STM32F1xx_HAL_Driver/Src/stm32f1xx_hal_rtc.c ****     
 391:Drivers/STM32F1xx_HAL_Driver/Src/stm32f1xx_hal_rtc.c ****     if(RTC_ExitInitMode(hrtc) != HAL_OK)
 392:Drivers/STM32F1xx_HAL_Driver/Src/stm32f1xx_hal_rtc.c ****     {       
 393:Drivers/STM32F1xx_HAL_Driver/Src/stm32f1xx_hal_rtc.c ****       hrtc->State = HAL_RTC_STATE_ERROR;
 394:Drivers/STM32F1xx_HAL_Driver/Src/stm32f1xx_hal_rtc.c ****       
 395:Drivers/STM32F1xx_HAL_Driver/Src/stm32f1xx_hal_rtc.c ****       /* Process Unlocked */ 
 396:Drivers/STM32F1xx_HAL_Driver/Src/stm32f1xx_hal_rtc.c ****       __HAL_UNLOCK(hrtc);
 397:Drivers/STM32F1xx_HAL_Driver/Src/stm32f1xx_hal_rtc.c ****       
 398:Drivers/STM32F1xx_HAL_Driver/Src/stm32f1xx_hal_rtc.c ****       return HAL_ERROR;
 399:Drivers/STM32F1xx_HAL_Driver/Src/stm32f1xx_hal_rtc.c ****     }
 400:Drivers/STM32F1xx_HAL_Driver/Src/stm32f1xx_hal_rtc.c ****   }
 401:Drivers/STM32F1xx_HAL_Driver/Src/stm32f1xx_hal_rtc.c **** 
 402:Drivers/STM32F1xx_HAL_Driver/Src/stm32f1xx_hal_rtc.c ****   /* Wait for synchro*/
 403:Drivers/STM32F1xx_HAL_Driver/Src/stm32f1xx_hal_rtc.c ****   HAL_RTC_WaitForSynchro(hrtc);
 404:Drivers/STM32F1xx_HAL_Driver/Src/stm32f1xx_hal_rtc.c **** 
 405:Drivers/STM32F1xx_HAL_Driver/Src/stm32f1xx_hal_rtc.c ****   /* Clear RSF flag */
 406:Drivers/STM32F1xx_HAL_Driver/Src/stm32f1xx_hal_rtc.c ****   CLEAR_BIT(hrtc->Instance->CRL, RTC_FLAG_RSF);
 407:Drivers/STM32F1xx_HAL_Driver/Src/stm32f1xx_hal_rtc.c ****     
 408:Drivers/STM32F1xx_HAL_Driver/Src/stm32f1xx_hal_rtc.c ****   /* De-Initialize RTC MSP */
 409:Drivers/STM32F1xx_HAL_Driver/Src/stm32f1xx_hal_rtc.c ****   HAL_RTC_MspDeInit(hrtc);
 410:Drivers/STM32F1xx_HAL_Driver/Src/stm32f1xx_hal_rtc.c **** 
 411:Drivers/STM32F1xx_HAL_Driver/Src/stm32f1xx_hal_rtc.c ****   hrtc->State = HAL_RTC_STATE_RESET; 
 412:Drivers/STM32F1xx_HAL_Driver/Src/stm32f1xx_hal_rtc.c ****   
 413:Drivers/STM32F1xx_HAL_Driver/Src/stm32f1xx_hal_rtc.c ****   /* Release Lock */
 414:Drivers/STM32F1xx_HAL_Driver/Src/stm32f1xx_hal_rtc.c ****   __HAL_UNLOCK(hrtc);
 415:Drivers/STM32F1xx_HAL_Driver/Src/stm32f1xx_hal_rtc.c **** 
 416:Drivers/STM32F1xx_HAL_Driver/Src/stm32f1xx_hal_rtc.c ****   return HAL_OK;
 417:Drivers/STM32F1xx_HAL_Driver/Src/stm32f1xx_hal_rtc.c **** }
 418:Drivers/STM32F1xx_HAL_Driver/Src/stm32f1xx_hal_rtc.c **** 
 419:Drivers/STM32F1xx_HAL_Driver/Src/stm32f1xx_hal_rtc.c **** /**
 420:Drivers/STM32F1xx_HAL_Driver/Src/stm32f1xx_hal_rtc.c ****   * @brief  Initializes the RTC MSP.
 421:Drivers/STM32F1xx_HAL_Driver/Src/stm32f1xx_hal_rtc.c ****   * @param  hrtc   pointer to a RTC_HandleTypeDef structure that contains
 422:Drivers/STM32F1xx_HAL_Driver/Src/stm32f1xx_hal_rtc.c ****   *                the configuration information for RTC.  
 423:Drivers/STM32F1xx_HAL_Driver/Src/stm32f1xx_hal_rtc.c ****   * @retval None
 424:Drivers/STM32F1xx_HAL_Driver/Src/stm32f1xx_hal_rtc.c ****   */
 425:Drivers/STM32F1xx_HAL_Driver/Src/stm32f1xx_hal_rtc.c **** __weak void HAL_RTC_MspInit(RTC_HandleTypeDef* hrtc)
 426:Drivers/STM32F1xx_HAL_Driver/Src/stm32f1xx_hal_rtc.c **** {
 427:Drivers/STM32F1xx_HAL_Driver/Src/stm32f1xx_hal_rtc.c ****   /* Prevent unused argument(s) compilation warning */
 428:Drivers/STM32F1xx_HAL_Driver/Src/stm32f1xx_hal_rtc.c ****   UNUSED(hrtc);
 429:Drivers/STM32F1xx_HAL_Driver/Src/stm32f1xx_hal_rtc.c ****   /* NOTE : This function Should not be modified, when the callback is needed,
 430:Drivers/STM32F1xx_HAL_Driver/Src/stm32f1xx_hal_rtc.c ****             the HAL_RTC_MspInit could be implemented in the user file
 431:Drivers/STM32F1xx_HAL_Driver/Src/stm32f1xx_hal_rtc.c ****    */ 
 432:Drivers/STM32F1xx_HAL_Driver/Src/stm32f1xx_hal_rtc.c **** }
 433:Drivers/STM32F1xx_HAL_Driver/Src/stm32f1xx_hal_rtc.c **** 
ARM GAS  /tmp/cc2ffejw.s 			page 9


 434:Drivers/STM32F1xx_HAL_Driver/Src/stm32f1xx_hal_rtc.c **** /**
 435:Drivers/STM32F1xx_HAL_Driver/Src/stm32f1xx_hal_rtc.c ****   * @brief  DeInitializes the RTC MSP.
 436:Drivers/STM32F1xx_HAL_Driver/Src/stm32f1xx_hal_rtc.c ****   * @param  hrtc   pointer to a RTC_HandleTypeDef structure that contains
 437:Drivers/STM32F1xx_HAL_Driver/Src/stm32f1xx_hal_rtc.c ****   *                the configuration information for RTC. 
 438:Drivers/STM32F1xx_HAL_Driver/Src/stm32f1xx_hal_rtc.c ****   * @retval None
 439:Drivers/STM32F1xx_HAL_Driver/Src/stm32f1xx_hal_rtc.c ****   */
 440:Drivers/STM32F1xx_HAL_Driver/Src/stm32f1xx_hal_rtc.c **** __weak void HAL_RTC_MspDeInit(RTC_HandleTypeDef* hrtc)
 441:Drivers/STM32F1xx_HAL_Driver/Src/stm32f1xx_hal_rtc.c **** {
 442:Drivers/STM32F1xx_HAL_Driver/Src/stm32f1xx_hal_rtc.c ****   /* Prevent unused argument(s) compilation warning */
 443:Drivers/STM32F1xx_HAL_Driver/Src/stm32f1xx_hal_rtc.c ****   UNUSED(hrtc);
 444:Drivers/STM32F1xx_HAL_Driver/Src/stm32f1xx_hal_rtc.c ****   /* NOTE : This function Should not be modified, when the callback is needed,
 445:Drivers/STM32F1xx_HAL_Driver/Src/stm32f1xx_hal_rtc.c ****             the HAL_RTC_MspDeInit could be implemented in the user file
 446:Drivers/STM32F1xx_HAL_Driver/Src/stm32f1xx_hal_rtc.c ****    */ 
 447:Drivers/STM32F1xx_HAL_Driver/Src/stm32f1xx_hal_rtc.c **** }
 448:Drivers/STM32F1xx_HAL_Driver/Src/stm32f1xx_hal_rtc.c **** 
 449:Drivers/STM32F1xx_HAL_Driver/Src/stm32f1xx_hal_rtc.c **** /**
 450:Drivers/STM32F1xx_HAL_Driver/Src/stm32f1xx_hal_rtc.c ****   * @}
 451:Drivers/STM32F1xx_HAL_Driver/Src/stm32f1xx_hal_rtc.c ****   */
 452:Drivers/STM32F1xx_HAL_Driver/Src/stm32f1xx_hal_rtc.c **** 
 453:Drivers/STM32F1xx_HAL_Driver/Src/stm32f1xx_hal_rtc.c **** /** @defgroup RTC_Exported_Functions_Group2 Time and Date functions
 454:Drivers/STM32F1xx_HAL_Driver/Src/stm32f1xx_hal_rtc.c ****  *  @brief   RTC Time and Date functions
 455:Drivers/STM32F1xx_HAL_Driver/Src/stm32f1xx_hal_rtc.c ****  *
 456:Drivers/STM32F1xx_HAL_Driver/Src/stm32f1xx_hal_rtc.c **** @verbatim   
 457:Drivers/STM32F1xx_HAL_Driver/Src/stm32f1xx_hal_rtc.c ****  ===============================================================================
 458:Drivers/STM32F1xx_HAL_Driver/Src/stm32f1xx_hal_rtc.c ****                  ##### RTC Time and Date functions #####
 459:Drivers/STM32F1xx_HAL_Driver/Src/stm32f1xx_hal_rtc.c ****  ===============================================================================  
 460:Drivers/STM32F1xx_HAL_Driver/Src/stm32f1xx_hal_rtc.c ****  
 461:Drivers/STM32F1xx_HAL_Driver/Src/stm32f1xx_hal_rtc.c ****  [..] This section provides functions allowing to configure Time and Date features
 462:Drivers/STM32F1xx_HAL_Driver/Src/stm32f1xx_hal_rtc.c **** 
 463:Drivers/STM32F1xx_HAL_Driver/Src/stm32f1xx_hal_rtc.c **** @endverbatim
 464:Drivers/STM32F1xx_HAL_Driver/Src/stm32f1xx_hal_rtc.c ****   * @{
 465:Drivers/STM32F1xx_HAL_Driver/Src/stm32f1xx_hal_rtc.c ****   */
 466:Drivers/STM32F1xx_HAL_Driver/Src/stm32f1xx_hal_rtc.c **** 
 467:Drivers/STM32F1xx_HAL_Driver/Src/stm32f1xx_hal_rtc.c **** /**
 468:Drivers/STM32F1xx_HAL_Driver/Src/stm32f1xx_hal_rtc.c ****   * @brief  Sets RTC current time.
 469:Drivers/STM32F1xx_HAL_Driver/Src/stm32f1xx_hal_rtc.c ****   * @param  hrtc   pointer to a RTC_HandleTypeDef structure that contains
 470:Drivers/STM32F1xx_HAL_Driver/Src/stm32f1xx_hal_rtc.c ****   *                the configuration information for RTC.
 471:Drivers/STM32F1xx_HAL_Driver/Src/stm32f1xx_hal_rtc.c ****   * @param  sTime: Pointer to Time structure
 472:Drivers/STM32F1xx_HAL_Driver/Src/stm32f1xx_hal_rtc.c ****   * @param  Format: Specifies the format of the entered parameters.
 473:Drivers/STM32F1xx_HAL_Driver/Src/stm32f1xx_hal_rtc.c ****   *          This parameter can be one of the following values:
 474:Drivers/STM32F1xx_HAL_Driver/Src/stm32f1xx_hal_rtc.c ****   *            @arg RTC_FORMAT_BIN: Binary data format 
 475:Drivers/STM32F1xx_HAL_Driver/Src/stm32f1xx_hal_rtc.c ****   *            @arg RTC_FORMAT_BCD: BCD data format
 476:Drivers/STM32F1xx_HAL_Driver/Src/stm32f1xx_hal_rtc.c ****   * @retval HAL status
 477:Drivers/STM32F1xx_HAL_Driver/Src/stm32f1xx_hal_rtc.c ****   */
 478:Drivers/STM32F1xx_HAL_Driver/Src/stm32f1xx_hal_rtc.c **** HAL_StatusTypeDef HAL_RTC_SetTime(RTC_HandleTypeDef *hrtc, RTC_TimeTypeDef *sTime, uint32_t Format)
 479:Drivers/STM32F1xx_HAL_Driver/Src/stm32f1xx_hal_rtc.c **** {
 480:Drivers/STM32F1xx_HAL_Driver/Src/stm32f1xx_hal_rtc.c ****   uint32_t counter_time = 0U, counter_alarm = 0U;
 481:Drivers/STM32F1xx_HAL_Driver/Src/stm32f1xx_hal_rtc.c ****   
 482:Drivers/STM32F1xx_HAL_Driver/Src/stm32f1xx_hal_rtc.c ****   /* Check input parameters */
 483:Drivers/STM32F1xx_HAL_Driver/Src/stm32f1xx_hal_rtc.c ****   if((hrtc == NULL) || (sTime == NULL))
 484:Drivers/STM32F1xx_HAL_Driver/Src/stm32f1xx_hal_rtc.c ****   {
 485:Drivers/STM32F1xx_HAL_Driver/Src/stm32f1xx_hal_rtc.c ****      return HAL_ERROR;
 486:Drivers/STM32F1xx_HAL_Driver/Src/stm32f1xx_hal_rtc.c ****   }
 487:Drivers/STM32F1xx_HAL_Driver/Src/stm32f1xx_hal_rtc.c ****   
 488:Drivers/STM32F1xx_HAL_Driver/Src/stm32f1xx_hal_rtc.c ****  /* Check the parameters */
 489:Drivers/STM32F1xx_HAL_Driver/Src/stm32f1xx_hal_rtc.c ****   assert_param(IS_RTC_FORMAT(Format));
 490:Drivers/STM32F1xx_HAL_Driver/Src/stm32f1xx_hal_rtc.c ****   
ARM GAS  /tmp/cc2ffejw.s 			page 10


 491:Drivers/STM32F1xx_HAL_Driver/Src/stm32f1xx_hal_rtc.c ****   /* Process Locked */ 
 492:Drivers/STM32F1xx_HAL_Driver/Src/stm32f1xx_hal_rtc.c ****   __HAL_LOCK(hrtc);
 493:Drivers/STM32F1xx_HAL_Driver/Src/stm32f1xx_hal_rtc.c ****   
 494:Drivers/STM32F1xx_HAL_Driver/Src/stm32f1xx_hal_rtc.c ****   hrtc->State = HAL_RTC_STATE_BUSY;
 495:Drivers/STM32F1xx_HAL_Driver/Src/stm32f1xx_hal_rtc.c ****   
 496:Drivers/STM32F1xx_HAL_Driver/Src/stm32f1xx_hal_rtc.c ****   if(Format == RTC_FORMAT_BIN)
 497:Drivers/STM32F1xx_HAL_Driver/Src/stm32f1xx_hal_rtc.c ****   {
 498:Drivers/STM32F1xx_HAL_Driver/Src/stm32f1xx_hal_rtc.c ****     assert_param(IS_RTC_HOUR24(sTime->Hours));
 499:Drivers/STM32F1xx_HAL_Driver/Src/stm32f1xx_hal_rtc.c ****     assert_param(IS_RTC_MINUTES(sTime->Minutes));
 500:Drivers/STM32F1xx_HAL_Driver/Src/stm32f1xx_hal_rtc.c ****     assert_param(IS_RTC_SECONDS(sTime->Seconds));
 501:Drivers/STM32F1xx_HAL_Driver/Src/stm32f1xx_hal_rtc.c **** 
 502:Drivers/STM32F1xx_HAL_Driver/Src/stm32f1xx_hal_rtc.c ****     counter_time = (uint32_t)(((uint32_t)sTime->Hours * 3600U) + \
 503:Drivers/STM32F1xx_HAL_Driver/Src/stm32f1xx_hal_rtc.c ****                         ((uint32_t)sTime->Minutes * 60U) + \
 504:Drivers/STM32F1xx_HAL_Driver/Src/stm32f1xx_hal_rtc.c ****                         ((uint32_t)sTime->Seconds));  
 505:Drivers/STM32F1xx_HAL_Driver/Src/stm32f1xx_hal_rtc.c ****   }
 506:Drivers/STM32F1xx_HAL_Driver/Src/stm32f1xx_hal_rtc.c ****   else
 507:Drivers/STM32F1xx_HAL_Driver/Src/stm32f1xx_hal_rtc.c ****   {
 508:Drivers/STM32F1xx_HAL_Driver/Src/stm32f1xx_hal_rtc.c ****     assert_param(IS_RTC_HOUR24(RTC_Bcd2ToByte(sTime->Hours)));
 509:Drivers/STM32F1xx_HAL_Driver/Src/stm32f1xx_hal_rtc.c ****     assert_param(IS_RTC_MINUTES(RTC_Bcd2ToByte(sTime->Minutes)));
 510:Drivers/STM32F1xx_HAL_Driver/Src/stm32f1xx_hal_rtc.c ****     assert_param(IS_RTC_SECONDS(RTC_Bcd2ToByte(sTime->Seconds)));
 511:Drivers/STM32F1xx_HAL_Driver/Src/stm32f1xx_hal_rtc.c **** 
 512:Drivers/STM32F1xx_HAL_Driver/Src/stm32f1xx_hal_rtc.c ****     counter_time = (((uint32_t)(RTC_Bcd2ToByte(sTime->Hours)) * 3600U) + \
 513:Drivers/STM32F1xx_HAL_Driver/Src/stm32f1xx_hal_rtc.c ****               ((uint32_t)(RTC_Bcd2ToByte(sTime->Minutes)) * 60U) + \
 514:Drivers/STM32F1xx_HAL_Driver/Src/stm32f1xx_hal_rtc.c ****               ((uint32_t)(RTC_Bcd2ToByte(sTime->Seconds))));   
 515:Drivers/STM32F1xx_HAL_Driver/Src/stm32f1xx_hal_rtc.c ****   }
 516:Drivers/STM32F1xx_HAL_Driver/Src/stm32f1xx_hal_rtc.c **** 
 517:Drivers/STM32F1xx_HAL_Driver/Src/stm32f1xx_hal_rtc.c ****   /* Write time counter in RTC registers */
 518:Drivers/STM32F1xx_HAL_Driver/Src/stm32f1xx_hal_rtc.c ****   if (RTC_WriteTimeCounter(hrtc, counter_time) != HAL_OK)
 519:Drivers/STM32F1xx_HAL_Driver/Src/stm32f1xx_hal_rtc.c ****   {
 520:Drivers/STM32F1xx_HAL_Driver/Src/stm32f1xx_hal_rtc.c ****     /* Set RTC state */
 521:Drivers/STM32F1xx_HAL_Driver/Src/stm32f1xx_hal_rtc.c ****     hrtc->State = HAL_RTC_STATE_ERROR;
 522:Drivers/STM32F1xx_HAL_Driver/Src/stm32f1xx_hal_rtc.c ****     
 523:Drivers/STM32F1xx_HAL_Driver/Src/stm32f1xx_hal_rtc.c ****     /* Process Unlocked */ 
 524:Drivers/STM32F1xx_HAL_Driver/Src/stm32f1xx_hal_rtc.c ****     __HAL_UNLOCK(hrtc);
 525:Drivers/STM32F1xx_HAL_Driver/Src/stm32f1xx_hal_rtc.c ****     
 526:Drivers/STM32F1xx_HAL_Driver/Src/stm32f1xx_hal_rtc.c ****     return HAL_ERROR;
 527:Drivers/STM32F1xx_HAL_Driver/Src/stm32f1xx_hal_rtc.c ****   }
 528:Drivers/STM32F1xx_HAL_Driver/Src/stm32f1xx_hal_rtc.c ****   else
 529:Drivers/STM32F1xx_HAL_Driver/Src/stm32f1xx_hal_rtc.c ****   {
 530:Drivers/STM32F1xx_HAL_Driver/Src/stm32f1xx_hal_rtc.c ****     /* Clear Second and overflow flags */
 531:Drivers/STM32F1xx_HAL_Driver/Src/stm32f1xx_hal_rtc.c ****     CLEAR_BIT(hrtc->Instance->CRL, (RTC_FLAG_SEC | RTC_FLAG_OW));
 532:Drivers/STM32F1xx_HAL_Driver/Src/stm32f1xx_hal_rtc.c ****     
 533:Drivers/STM32F1xx_HAL_Driver/Src/stm32f1xx_hal_rtc.c ****     /* Read current Alarm counter in RTC registers */
 534:Drivers/STM32F1xx_HAL_Driver/Src/stm32f1xx_hal_rtc.c ****     counter_alarm = RTC_ReadAlarmCounter(hrtc);
 535:Drivers/STM32F1xx_HAL_Driver/Src/stm32f1xx_hal_rtc.c **** 
 536:Drivers/STM32F1xx_HAL_Driver/Src/stm32f1xx_hal_rtc.c ****     /* Set again alarm to match with new time if enabled */
 537:Drivers/STM32F1xx_HAL_Driver/Src/stm32f1xx_hal_rtc.c ****     if (counter_alarm != RTC_ALARM_RESETVALUE)
 538:Drivers/STM32F1xx_HAL_Driver/Src/stm32f1xx_hal_rtc.c ****     {
 539:Drivers/STM32F1xx_HAL_Driver/Src/stm32f1xx_hal_rtc.c ****       if(counter_alarm < counter_time)
 540:Drivers/STM32F1xx_HAL_Driver/Src/stm32f1xx_hal_rtc.c ****       {
 541:Drivers/STM32F1xx_HAL_Driver/Src/stm32f1xx_hal_rtc.c ****         /* Add 1 day to alarm counter*/
 542:Drivers/STM32F1xx_HAL_Driver/Src/stm32f1xx_hal_rtc.c ****         counter_alarm += (uint32_t)(24U * 3600U);
 543:Drivers/STM32F1xx_HAL_Driver/Src/stm32f1xx_hal_rtc.c ****         
 544:Drivers/STM32F1xx_HAL_Driver/Src/stm32f1xx_hal_rtc.c ****         /* Write new Alarm counter in RTC registers */
 545:Drivers/STM32F1xx_HAL_Driver/Src/stm32f1xx_hal_rtc.c ****         if (RTC_WriteAlarmCounter(hrtc, counter_alarm) != HAL_OK)
 546:Drivers/STM32F1xx_HAL_Driver/Src/stm32f1xx_hal_rtc.c ****         {
 547:Drivers/STM32F1xx_HAL_Driver/Src/stm32f1xx_hal_rtc.c ****           /* Set RTC state */
ARM GAS  /tmp/cc2ffejw.s 			page 11


 548:Drivers/STM32F1xx_HAL_Driver/Src/stm32f1xx_hal_rtc.c ****           hrtc->State = HAL_RTC_STATE_ERROR;
 549:Drivers/STM32F1xx_HAL_Driver/Src/stm32f1xx_hal_rtc.c ****           
 550:Drivers/STM32F1xx_HAL_Driver/Src/stm32f1xx_hal_rtc.c ****           /* Process Unlocked */ 
 551:Drivers/STM32F1xx_HAL_Driver/Src/stm32f1xx_hal_rtc.c ****           __HAL_UNLOCK(hrtc);
 552:Drivers/STM32F1xx_HAL_Driver/Src/stm32f1xx_hal_rtc.c ****           
 553:Drivers/STM32F1xx_HAL_Driver/Src/stm32f1xx_hal_rtc.c ****           return HAL_ERROR;
 554:Drivers/STM32F1xx_HAL_Driver/Src/stm32f1xx_hal_rtc.c ****         }
 555:Drivers/STM32F1xx_HAL_Driver/Src/stm32f1xx_hal_rtc.c ****       }
 556:Drivers/STM32F1xx_HAL_Driver/Src/stm32f1xx_hal_rtc.c ****     }
 557:Drivers/STM32F1xx_HAL_Driver/Src/stm32f1xx_hal_rtc.c ****     
 558:Drivers/STM32F1xx_HAL_Driver/Src/stm32f1xx_hal_rtc.c ****     hrtc->State = HAL_RTC_STATE_READY;
 559:Drivers/STM32F1xx_HAL_Driver/Src/stm32f1xx_hal_rtc.c ****   
 560:Drivers/STM32F1xx_HAL_Driver/Src/stm32f1xx_hal_rtc.c ****    __HAL_UNLOCK(hrtc); 
 561:Drivers/STM32F1xx_HAL_Driver/Src/stm32f1xx_hal_rtc.c ****      
 562:Drivers/STM32F1xx_HAL_Driver/Src/stm32f1xx_hal_rtc.c ****    return HAL_OK;
 563:Drivers/STM32F1xx_HAL_Driver/Src/stm32f1xx_hal_rtc.c ****   }
 564:Drivers/STM32F1xx_HAL_Driver/Src/stm32f1xx_hal_rtc.c **** }
 565:Drivers/STM32F1xx_HAL_Driver/Src/stm32f1xx_hal_rtc.c **** 
 566:Drivers/STM32F1xx_HAL_Driver/Src/stm32f1xx_hal_rtc.c **** /**
 567:Drivers/STM32F1xx_HAL_Driver/Src/stm32f1xx_hal_rtc.c ****   * @brief  Gets RTC current time.
 568:Drivers/STM32F1xx_HAL_Driver/Src/stm32f1xx_hal_rtc.c ****   * @param  hrtc   pointer to a RTC_HandleTypeDef structure that contains
 569:Drivers/STM32F1xx_HAL_Driver/Src/stm32f1xx_hal_rtc.c ****   *                the configuration information for RTC.
 570:Drivers/STM32F1xx_HAL_Driver/Src/stm32f1xx_hal_rtc.c ****   * @param  sTime: Pointer to Time structure
 571:Drivers/STM32F1xx_HAL_Driver/Src/stm32f1xx_hal_rtc.c ****   * @param  Format: Specifies the format of the entered parameters.
 572:Drivers/STM32F1xx_HAL_Driver/Src/stm32f1xx_hal_rtc.c ****   *          This parameter can be one of the following values:
 573:Drivers/STM32F1xx_HAL_Driver/Src/stm32f1xx_hal_rtc.c ****   *            @arg RTC_FORMAT_BIN: Binary data format 
 574:Drivers/STM32F1xx_HAL_Driver/Src/stm32f1xx_hal_rtc.c ****   *            @arg RTC_FORMAT_BCD: BCD data format
 575:Drivers/STM32F1xx_HAL_Driver/Src/stm32f1xx_hal_rtc.c ****   * @retval HAL status
 576:Drivers/STM32F1xx_HAL_Driver/Src/stm32f1xx_hal_rtc.c ****   */
 577:Drivers/STM32F1xx_HAL_Driver/Src/stm32f1xx_hal_rtc.c **** HAL_StatusTypeDef HAL_RTC_GetTime(RTC_HandleTypeDef *hrtc, RTC_TimeTypeDef *sTime, uint32_t Format)
 578:Drivers/STM32F1xx_HAL_Driver/Src/stm32f1xx_hal_rtc.c **** {
 579:Drivers/STM32F1xx_HAL_Driver/Src/stm32f1xx_hal_rtc.c ****   uint32_t counter_time = 0U, counter_alarm = 0U, days_elapsed = 0U, hours = 0U;
 580:Drivers/STM32F1xx_HAL_Driver/Src/stm32f1xx_hal_rtc.c ****   
 581:Drivers/STM32F1xx_HAL_Driver/Src/stm32f1xx_hal_rtc.c ****   /* Check input parameters */
 582:Drivers/STM32F1xx_HAL_Driver/Src/stm32f1xx_hal_rtc.c ****   if((hrtc == NULL) || (sTime == NULL))
 583:Drivers/STM32F1xx_HAL_Driver/Src/stm32f1xx_hal_rtc.c ****   {
 584:Drivers/STM32F1xx_HAL_Driver/Src/stm32f1xx_hal_rtc.c ****      return HAL_ERROR;
 585:Drivers/STM32F1xx_HAL_Driver/Src/stm32f1xx_hal_rtc.c ****   }
 586:Drivers/STM32F1xx_HAL_Driver/Src/stm32f1xx_hal_rtc.c **** 
 587:Drivers/STM32F1xx_HAL_Driver/Src/stm32f1xx_hal_rtc.c ****   /* Check the parameters */
 588:Drivers/STM32F1xx_HAL_Driver/Src/stm32f1xx_hal_rtc.c ****   assert_param(IS_RTC_FORMAT(Format));
 589:Drivers/STM32F1xx_HAL_Driver/Src/stm32f1xx_hal_rtc.c **** 
 590:Drivers/STM32F1xx_HAL_Driver/Src/stm32f1xx_hal_rtc.c ****   /* Check if counter overflow occurred */
 591:Drivers/STM32F1xx_HAL_Driver/Src/stm32f1xx_hal_rtc.c ****   if (__HAL_RTC_OVERFLOW_GET_FLAG(hrtc, RTC_FLAG_OW))
 592:Drivers/STM32F1xx_HAL_Driver/Src/stm32f1xx_hal_rtc.c ****   {
 593:Drivers/STM32F1xx_HAL_Driver/Src/stm32f1xx_hal_rtc.c ****       return HAL_ERROR;
 594:Drivers/STM32F1xx_HAL_Driver/Src/stm32f1xx_hal_rtc.c ****   }
 595:Drivers/STM32F1xx_HAL_Driver/Src/stm32f1xx_hal_rtc.c **** 
 596:Drivers/STM32F1xx_HAL_Driver/Src/stm32f1xx_hal_rtc.c ****   /* Read the time counter*/
 597:Drivers/STM32F1xx_HAL_Driver/Src/stm32f1xx_hal_rtc.c ****   counter_time = RTC_ReadTimeCounter(hrtc);
 598:Drivers/STM32F1xx_HAL_Driver/Src/stm32f1xx_hal_rtc.c **** 
 599:Drivers/STM32F1xx_HAL_Driver/Src/stm32f1xx_hal_rtc.c ****   /* Fill the structure fields with the read parameters */
 600:Drivers/STM32F1xx_HAL_Driver/Src/stm32f1xx_hal_rtc.c ****   hours = counter_time / 3600U;
 601:Drivers/STM32F1xx_HAL_Driver/Src/stm32f1xx_hal_rtc.c ****   sTime->Minutes  = (uint8_t)((counter_time % 3600U) / 60U);
 602:Drivers/STM32F1xx_HAL_Driver/Src/stm32f1xx_hal_rtc.c ****   sTime->Seconds  = (uint8_t)((counter_time % 3600U) % 60U);
 603:Drivers/STM32F1xx_HAL_Driver/Src/stm32f1xx_hal_rtc.c **** 
 604:Drivers/STM32F1xx_HAL_Driver/Src/stm32f1xx_hal_rtc.c ****   if (hours >= 24U)
ARM GAS  /tmp/cc2ffejw.s 			page 12


 605:Drivers/STM32F1xx_HAL_Driver/Src/stm32f1xx_hal_rtc.c ****   {
 606:Drivers/STM32F1xx_HAL_Driver/Src/stm32f1xx_hal_rtc.c ****     /* Get number of days elapsed from last calculation */
 607:Drivers/STM32F1xx_HAL_Driver/Src/stm32f1xx_hal_rtc.c ****     days_elapsed = (hours / 24U);
 608:Drivers/STM32F1xx_HAL_Driver/Src/stm32f1xx_hal_rtc.c **** 
 609:Drivers/STM32F1xx_HAL_Driver/Src/stm32f1xx_hal_rtc.c ****     /* Set Hours in RTC_TimeTypeDef structure*/
 610:Drivers/STM32F1xx_HAL_Driver/Src/stm32f1xx_hal_rtc.c ****     sTime->Hours = (hours % 24U);    
 611:Drivers/STM32F1xx_HAL_Driver/Src/stm32f1xx_hal_rtc.c **** 
 612:Drivers/STM32F1xx_HAL_Driver/Src/stm32f1xx_hal_rtc.c ****     /* Read Alarm counter in RTC registers */
 613:Drivers/STM32F1xx_HAL_Driver/Src/stm32f1xx_hal_rtc.c ****     counter_alarm = RTC_ReadAlarmCounter(hrtc);
 614:Drivers/STM32F1xx_HAL_Driver/Src/stm32f1xx_hal_rtc.c **** 
 615:Drivers/STM32F1xx_HAL_Driver/Src/stm32f1xx_hal_rtc.c ****     /* Calculate remaining time to reach alarm (only if set and not yet expired)*/
 616:Drivers/STM32F1xx_HAL_Driver/Src/stm32f1xx_hal_rtc.c ****     if ((counter_alarm != RTC_ALARM_RESETVALUE) && (counter_alarm > counter_time))
 617:Drivers/STM32F1xx_HAL_Driver/Src/stm32f1xx_hal_rtc.c ****     {
 618:Drivers/STM32F1xx_HAL_Driver/Src/stm32f1xx_hal_rtc.c ****       counter_alarm -= counter_time;
 619:Drivers/STM32F1xx_HAL_Driver/Src/stm32f1xx_hal_rtc.c ****     }
 620:Drivers/STM32F1xx_HAL_Driver/Src/stm32f1xx_hal_rtc.c ****     else 
 621:Drivers/STM32F1xx_HAL_Driver/Src/stm32f1xx_hal_rtc.c ****     {
 622:Drivers/STM32F1xx_HAL_Driver/Src/stm32f1xx_hal_rtc.c ****       /* In case of counter_alarm < counter_time */
 623:Drivers/STM32F1xx_HAL_Driver/Src/stm32f1xx_hal_rtc.c ****       /* Alarm expiration already occurred but alarm not deactivated */
 624:Drivers/STM32F1xx_HAL_Driver/Src/stm32f1xx_hal_rtc.c ****       counter_alarm = RTC_ALARM_RESETVALUE;
 625:Drivers/STM32F1xx_HAL_Driver/Src/stm32f1xx_hal_rtc.c ****     }
 626:Drivers/STM32F1xx_HAL_Driver/Src/stm32f1xx_hal_rtc.c **** 
 627:Drivers/STM32F1xx_HAL_Driver/Src/stm32f1xx_hal_rtc.c ****     /* Set updated time in decreasing counter by number of days elapsed */
 628:Drivers/STM32F1xx_HAL_Driver/Src/stm32f1xx_hal_rtc.c ****     counter_time -= (days_elapsed * 24U * 3600U);
 629:Drivers/STM32F1xx_HAL_Driver/Src/stm32f1xx_hal_rtc.c ****     
 630:Drivers/STM32F1xx_HAL_Driver/Src/stm32f1xx_hal_rtc.c ****     /* Write time counter in RTC registers */
 631:Drivers/STM32F1xx_HAL_Driver/Src/stm32f1xx_hal_rtc.c ****     if (RTC_WriteTimeCounter(hrtc, counter_time) != HAL_OK)
 632:Drivers/STM32F1xx_HAL_Driver/Src/stm32f1xx_hal_rtc.c ****     {
 633:Drivers/STM32F1xx_HAL_Driver/Src/stm32f1xx_hal_rtc.c ****       return HAL_ERROR;
 634:Drivers/STM32F1xx_HAL_Driver/Src/stm32f1xx_hal_rtc.c ****     }
 635:Drivers/STM32F1xx_HAL_Driver/Src/stm32f1xx_hal_rtc.c **** 
 636:Drivers/STM32F1xx_HAL_Driver/Src/stm32f1xx_hal_rtc.c ****     /* Set updated alarm to be set */
 637:Drivers/STM32F1xx_HAL_Driver/Src/stm32f1xx_hal_rtc.c ****     if (counter_alarm != RTC_ALARM_RESETVALUE)
 638:Drivers/STM32F1xx_HAL_Driver/Src/stm32f1xx_hal_rtc.c ****     {
 639:Drivers/STM32F1xx_HAL_Driver/Src/stm32f1xx_hal_rtc.c ****       counter_alarm += counter_time;
 640:Drivers/STM32F1xx_HAL_Driver/Src/stm32f1xx_hal_rtc.c ****       
 641:Drivers/STM32F1xx_HAL_Driver/Src/stm32f1xx_hal_rtc.c ****       /* Write time counter in RTC registers */
 642:Drivers/STM32F1xx_HAL_Driver/Src/stm32f1xx_hal_rtc.c ****       if (RTC_WriteAlarmCounter(hrtc, counter_alarm) != HAL_OK)
 643:Drivers/STM32F1xx_HAL_Driver/Src/stm32f1xx_hal_rtc.c ****       {
 644:Drivers/STM32F1xx_HAL_Driver/Src/stm32f1xx_hal_rtc.c ****         return HAL_ERROR;
 645:Drivers/STM32F1xx_HAL_Driver/Src/stm32f1xx_hal_rtc.c ****       }
 646:Drivers/STM32F1xx_HAL_Driver/Src/stm32f1xx_hal_rtc.c ****     }
 647:Drivers/STM32F1xx_HAL_Driver/Src/stm32f1xx_hal_rtc.c ****     else
 648:Drivers/STM32F1xx_HAL_Driver/Src/stm32f1xx_hal_rtc.c ****     {
 649:Drivers/STM32F1xx_HAL_Driver/Src/stm32f1xx_hal_rtc.c ****       /* Alarm already occurred. Set it to reset values to avoid unexpected expiration */
 650:Drivers/STM32F1xx_HAL_Driver/Src/stm32f1xx_hal_rtc.c ****       if (RTC_WriteAlarmCounter(hrtc, counter_alarm) != HAL_OK)
 651:Drivers/STM32F1xx_HAL_Driver/Src/stm32f1xx_hal_rtc.c ****       {
 652:Drivers/STM32F1xx_HAL_Driver/Src/stm32f1xx_hal_rtc.c ****         return HAL_ERROR;
 653:Drivers/STM32F1xx_HAL_Driver/Src/stm32f1xx_hal_rtc.c ****       }
 654:Drivers/STM32F1xx_HAL_Driver/Src/stm32f1xx_hal_rtc.c ****     }
 655:Drivers/STM32F1xx_HAL_Driver/Src/stm32f1xx_hal_rtc.c ****     
 656:Drivers/STM32F1xx_HAL_Driver/Src/stm32f1xx_hal_rtc.c ****     /* Update date */
 657:Drivers/STM32F1xx_HAL_Driver/Src/stm32f1xx_hal_rtc.c ****     RTC_DateUpdate(hrtc, days_elapsed);
 658:Drivers/STM32F1xx_HAL_Driver/Src/stm32f1xx_hal_rtc.c ****   }
 659:Drivers/STM32F1xx_HAL_Driver/Src/stm32f1xx_hal_rtc.c ****   else 
 660:Drivers/STM32F1xx_HAL_Driver/Src/stm32f1xx_hal_rtc.c ****   {
 661:Drivers/STM32F1xx_HAL_Driver/Src/stm32f1xx_hal_rtc.c ****     sTime->Hours = hours;    
ARM GAS  /tmp/cc2ffejw.s 			page 13


 662:Drivers/STM32F1xx_HAL_Driver/Src/stm32f1xx_hal_rtc.c ****   }
 663:Drivers/STM32F1xx_HAL_Driver/Src/stm32f1xx_hal_rtc.c **** 
 664:Drivers/STM32F1xx_HAL_Driver/Src/stm32f1xx_hal_rtc.c ****   /* Check the input parameters format */
 665:Drivers/STM32F1xx_HAL_Driver/Src/stm32f1xx_hal_rtc.c ****   if(Format != RTC_FORMAT_BIN)
 666:Drivers/STM32F1xx_HAL_Driver/Src/stm32f1xx_hal_rtc.c ****   {
 667:Drivers/STM32F1xx_HAL_Driver/Src/stm32f1xx_hal_rtc.c ****     /* Convert the time structure parameters to BCD format */
 668:Drivers/STM32F1xx_HAL_Driver/Src/stm32f1xx_hal_rtc.c ****     sTime->Hours    = (uint8_t)RTC_ByteToBcd2(sTime->Hours);
 669:Drivers/STM32F1xx_HAL_Driver/Src/stm32f1xx_hal_rtc.c ****     sTime->Minutes  = (uint8_t)RTC_ByteToBcd2(sTime->Minutes);
 670:Drivers/STM32F1xx_HAL_Driver/Src/stm32f1xx_hal_rtc.c ****     sTime->Seconds  = (uint8_t)RTC_ByteToBcd2(sTime->Seconds);  
 671:Drivers/STM32F1xx_HAL_Driver/Src/stm32f1xx_hal_rtc.c ****   }
 672:Drivers/STM32F1xx_HAL_Driver/Src/stm32f1xx_hal_rtc.c ****   
 673:Drivers/STM32F1xx_HAL_Driver/Src/stm32f1xx_hal_rtc.c ****   return HAL_OK;
 674:Drivers/STM32F1xx_HAL_Driver/Src/stm32f1xx_hal_rtc.c **** }
 675:Drivers/STM32F1xx_HAL_Driver/Src/stm32f1xx_hal_rtc.c **** 
 676:Drivers/STM32F1xx_HAL_Driver/Src/stm32f1xx_hal_rtc.c **** 
 677:Drivers/STM32F1xx_HAL_Driver/Src/stm32f1xx_hal_rtc.c **** /**
 678:Drivers/STM32F1xx_HAL_Driver/Src/stm32f1xx_hal_rtc.c ****   * @brief  Sets RTC current date.
 679:Drivers/STM32F1xx_HAL_Driver/Src/stm32f1xx_hal_rtc.c ****   * @param  hrtc   pointer to a RTC_HandleTypeDef structure that contains
 680:Drivers/STM32F1xx_HAL_Driver/Src/stm32f1xx_hal_rtc.c ****   *                the configuration information for RTC.
 681:Drivers/STM32F1xx_HAL_Driver/Src/stm32f1xx_hal_rtc.c ****   * @param  sDate: Pointer to date structure
 682:Drivers/STM32F1xx_HAL_Driver/Src/stm32f1xx_hal_rtc.c ****   * @param  Format: specifies the format of the entered parameters.
 683:Drivers/STM32F1xx_HAL_Driver/Src/stm32f1xx_hal_rtc.c ****   *          This parameter can be one of the following values:
 684:Drivers/STM32F1xx_HAL_Driver/Src/stm32f1xx_hal_rtc.c ****   *            @arg RTC_FORMAT_BIN: Binary data format 
 685:Drivers/STM32F1xx_HAL_Driver/Src/stm32f1xx_hal_rtc.c ****   *            @arg RTC_FORMAT_BCD: BCD data format
 686:Drivers/STM32F1xx_HAL_Driver/Src/stm32f1xx_hal_rtc.c ****   * @retval HAL status
 687:Drivers/STM32F1xx_HAL_Driver/Src/stm32f1xx_hal_rtc.c ****   */
 688:Drivers/STM32F1xx_HAL_Driver/Src/stm32f1xx_hal_rtc.c **** HAL_StatusTypeDef HAL_RTC_SetDate(RTC_HandleTypeDef *hrtc, RTC_DateTypeDef *sDate, uint32_t Format)
 689:Drivers/STM32F1xx_HAL_Driver/Src/stm32f1xx_hal_rtc.c **** {
 690:Drivers/STM32F1xx_HAL_Driver/Src/stm32f1xx_hal_rtc.c ****   uint32_t counter_time = 0U, counter_alarm = 0U, hours = 0U;
 691:Drivers/STM32F1xx_HAL_Driver/Src/stm32f1xx_hal_rtc.c ****   
 692:Drivers/STM32F1xx_HAL_Driver/Src/stm32f1xx_hal_rtc.c ****   /* Check input parameters */
 693:Drivers/STM32F1xx_HAL_Driver/Src/stm32f1xx_hal_rtc.c ****   if((hrtc == NULL) || (sDate == NULL))
 694:Drivers/STM32F1xx_HAL_Driver/Src/stm32f1xx_hal_rtc.c ****   {
 695:Drivers/STM32F1xx_HAL_Driver/Src/stm32f1xx_hal_rtc.c ****      return HAL_ERROR;
 696:Drivers/STM32F1xx_HAL_Driver/Src/stm32f1xx_hal_rtc.c ****   }
 697:Drivers/STM32F1xx_HAL_Driver/Src/stm32f1xx_hal_rtc.c ****   
 698:Drivers/STM32F1xx_HAL_Driver/Src/stm32f1xx_hal_rtc.c ****   /* Check the parameters */
 699:Drivers/STM32F1xx_HAL_Driver/Src/stm32f1xx_hal_rtc.c ****   assert_param(IS_RTC_FORMAT(Format));
 700:Drivers/STM32F1xx_HAL_Driver/Src/stm32f1xx_hal_rtc.c ****   
 701:Drivers/STM32F1xx_HAL_Driver/Src/stm32f1xx_hal_rtc.c ****  /* Process Locked */ 
 702:Drivers/STM32F1xx_HAL_Driver/Src/stm32f1xx_hal_rtc.c ****  __HAL_LOCK(hrtc);
 703:Drivers/STM32F1xx_HAL_Driver/Src/stm32f1xx_hal_rtc.c ****   
 704:Drivers/STM32F1xx_HAL_Driver/Src/stm32f1xx_hal_rtc.c ****   hrtc->State = HAL_RTC_STATE_BUSY; 
 705:Drivers/STM32F1xx_HAL_Driver/Src/stm32f1xx_hal_rtc.c ****   
 706:Drivers/STM32F1xx_HAL_Driver/Src/stm32f1xx_hal_rtc.c ****   if(Format == RTC_FORMAT_BIN)
 707:Drivers/STM32F1xx_HAL_Driver/Src/stm32f1xx_hal_rtc.c ****   {   
 708:Drivers/STM32F1xx_HAL_Driver/Src/stm32f1xx_hal_rtc.c ****     assert_param(IS_RTC_YEAR(sDate->Year));
 709:Drivers/STM32F1xx_HAL_Driver/Src/stm32f1xx_hal_rtc.c ****     assert_param(IS_RTC_MONTH(sDate->Month));
 710:Drivers/STM32F1xx_HAL_Driver/Src/stm32f1xx_hal_rtc.c ****     assert_param(IS_RTC_DATE(sDate->Date)); 
 711:Drivers/STM32F1xx_HAL_Driver/Src/stm32f1xx_hal_rtc.c **** 
 712:Drivers/STM32F1xx_HAL_Driver/Src/stm32f1xx_hal_rtc.c ****     /* Change the current date */
 713:Drivers/STM32F1xx_HAL_Driver/Src/stm32f1xx_hal_rtc.c ****     hrtc->DateToUpdate.Year  = sDate->Year;
 714:Drivers/STM32F1xx_HAL_Driver/Src/stm32f1xx_hal_rtc.c ****     hrtc->DateToUpdate.Month = sDate->Month;
 715:Drivers/STM32F1xx_HAL_Driver/Src/stm32f1xx_hal_rtc.c ****     hrtc->DateToUpdate.Date  = sDate->Date;
 716:Drivers/STM32F1xx_HAL_Driver/Src/stm32f1xx_hal_rtc.c ****   }
 717:Drivers/STM32F1xx_HAL_Driver/Src/stm32f1xx_hal_rtc.c ****   else
 718:Drivers/STM32F1xx_HAL_Driver/Src/stm32f1xx_hal_rtc.c ****   {   
ARM GAS  /tmp/cc2ffejw.s 			page 14


 719:Drivers/STM32F1xx_HAL_Driver/Src/stm32f1xx_hal_rtc.c ****     assert_param(IS_RTC_YEAR(RTC_Bcd2ToByte(sDate->Year)));
 720:Drivers/STM32F1xx_HAL_Driver/Src/stm32f1xx_hal_rtc.c ****     assert_param(IS_RTC_MONTH(RTC_Bcd2ToByte(sDate->Month)));
 721:Drivers/STM32F1xx_HAL_Driver/Src/stm32f1xx_hal_rtc.c ****     assert_param(IS_RTC_DATE(RTC_Bcd2ToByte(sDate->Date)));
 722:Drivers/STM32F1xx_HAL_Driver/Src/stm32f1xx_hal_rtc.c ****     
 723:Drivers/STM32F1xx_HAL_Driver/Src/stm32f1xx_hal_rtc.c ****     /* Change the current date */
 724:Drivers/STM32F1xx_HAL_Driver/Src/stm32f1xx_hal_rtc.c ****     hrtc->DateToUpdate.Year  = RTC_Bcd2ToByte(sDate->Year);
 725:Drivers/STM32F1xx_HAL_Driver/Src/stm32f1xx_hal_rtc.c ****     hrtc->DateToUpdate.Month = RTC_Bcd2ToByte(sDate->Month);
 726:Drivers/STM32F1xx_HAL_Driver/Src/stm32f1xx_hal_rtc.c ****     hrtc->DateToUpdate.Date  = RTC_Bcd2ToByte(sDate->Date);
 727:Drivers/STM32F1xx_HAL_Driver/Src/stm32f1xx_hal_rtc.c ****   }
 728:Drivers/STM32F1xx_HAL_Driver/Src/stm32f1xx_hal_rtc.c **** 
 729:Drivers/STM32F1xx_HAL_Driver/Src/stm32f1xx_hal_rtc.c ****   /* WeekDay set by user can be ignored because automatically calculated */
 730:Drivers/STM32F1xx_HAL_Driver/Src/stm32f1xx_hal_rtc.c ****   hrtc->DateToUpdate.WeekDay = RTC_WeekDayNum(hrtc->DateToUpdate.Year, hrtc->DateToUpdate.Month, hr
 731:Drivers/STM32F1xx_HAL_Driver/Src/stm32f1xx_hal_rtc.c ****   sDate->WeekDay = hrtc->DateToUpdate.WeekDay;
 732:Drivers/STM32F1xx_HAL_Driver/Src/stm32f1xx_hal_rtc.c **** 
 733:Drivers/STM32F1xx_HAL_Driver/Src/stm32f1xx_hal_rtc.c ****   /* Reset time to be aligned on the same day */
 734:Drivers/STM32F1xx_HAL_Driver/Src/stm32f1xx_hal_rtc.c ****   /* Read the time counter*/
 735:Drivers/STM32F1xx_HAL_Driver/Src/stm32f1xx_hal_rtc.c ****   counter_time = RTC_ReadTimeCounter(hrtc);
 736:Drivers/STM32F1xx_HAL_Driver/Src/stm32f1xx_hal_rtc.c **** 
 737:Drivers/STM32F1xx_HAL_Driver/Src/stm32f1xx_hal_rtc.c ****   /* Fill the structure fields with the read parameters */
 738:Drivers/STM32F1xx_HAL_Driver/Src/stm32f1xx_hal_rtc.c ****   hours = counter_time / 3600U;
 739:Drivers/STM32F1xx_HAL_Driver/Src/stm32f1xx_hal_rtc.c ****   if (hours > 24U)
 740:Drivers/STM32F1xx_HAL_Driver/Src/stm32f1xx_hal_rtc.c ****   {
 741:Drivers/STM32F1xx_HAL_Driver/Src/stm32f1xx_hal_rtc.c ****     /* Set updated time in decreasing counter by number of days elapsed */
 742:Drivers/STM32F1xx_HAL_Driver/Src/stm32f1xx_hal_rtc.c ****     counter_time -= ((hours / 24U) * 24U * 3600U);
 743:Drivers/STM32F1xx_HAL_Driver/Src/stm32f1xx_hal_rtc.c ****     /* Write time counter in RTC registers */
 744:Drivers/STM32F1xx_HAL_Driver/Src/stm32f1xx_hal_rtc.c ****     if (RTC_WriteTimeCounter(hrtc, counter_time) != HAL_OK)
 745:Drivers/STM32F1xx_HAL_Driver/Src/stm32f1xx_hal_rtc.c ****     {
 746:Drivers/STM32F1xx_HAL_Driver/Src/stm32f1xx_hal_rtc.c ****       /* Set RTC state */
 747:Drivers/STM32F1xx_HAL_Driver/Src/stm32f1xx_hal_rtc.c ****       hrtc->State = HAL_RTC_STATE_ERROR;
 748:Drivers/STM32F1xx_HAL_Driver/Src/stm32f1xx_hal_rtc.c ****       
 749:Drivers/STM32F1xx_HAL_Driver/Src/stm32f1xx_hal_rtc.c ****       /* Process Unlocked */ 
 750:Drivers/STM32F1xx_HAL_Driver/Src/stm32f1xx_hal_rtc.c ****       __HAL_UNLOCK(hrtc);
 751:Drivers/STM32F1xx_HAL_Driver/Src/stm32f1xx_hal_rtc.c ****       
 752:Drivers/STM32F1xx_HAL_Driver/Src/stm32f1xx_hal_rtc.c ****       return HAL_ERROR;
 753:Drivers/STM32F1xx_HAL_Driver/Src/stm32f1xx_hal_rtc.c ****     }
 754:Drivers/STM32F1xx_HAL_Driver/Src/stm32f1xx_hal_rtc.c **** 
 755:Drivers/STM32F1xx_HAL_Driver/Src/stm32f1xx_hal_rtc.c ****     /* Read current Alarm counter in RTC registers */
 756:Drivers/STM32F1xx_HAL_Driver/Src/stm32f1xx_hal_rtc.c ****     counter_alarm = RTC_ReadAlarmCounter(hrtc);
 757:Drivers/STM32F1xx_HAL_Driver/Src/stm32f1xx_hal_rtc.c **** 
 758:Drivers/STM32F1xx_HAL_Driver/Src/stm32f1xx_hal_rtc.c ****     /* Set again alarm to match with new time if enabled */
 759:Drivers/STM32F1xx_HAL_Driver/Src/stm32f1xx_hal_rtc.c ****     if (counter_alarm != RTC_ALARM_RESETVALUE)
 760:Drivers/STM32F1xx_HAL_Driver/Src/stm32f1xx_hal_rtc.c ****     {
 761:Drivers/STM32F1xx_HAL_Driver/Src/stm32f1xx_hal_rtc.c ****       if(counter_alarm < counter_time)
 762:Drivers/STM32F1xx_HAL_Driver/Src/stm32f1xx_hal_rtc.c ****       {
 763:Drivers/STM32F1xx_HAL_Driver/Src/stm32f1xx_hal_rtc.c ****         /* Add 1 day to alarm counter*/
 764:Drivers/STM32F1xx_HAL_Driver/Src/stm32f1xx_hal_rtc.c ****         counter_alarm += (uint32_t)(24U * 3600U);
 765:Drivers/STM32F1xx_HAL_Driver/Src/stm32f1xx_hal_rtc.c ****         
 766:Drivers/STM32F1xx_HAL_Driver/Src/stm32f1xx_hal_rtc.c ****         /* Write new Alarm counter in RTC registers */
 767:Drivers/STM32F1xx_HAL_Driver/Src/stm32f1xx_hal_rtc.c ****         if (RTC_WriteAlarmCounter(hrtc, counter_alarm) != HAL_OK)
 768:Drivers/STM32F1xx_HAL_Driver/Src/stm32f1xx_hal_rtc.c ****         {
 769:Drivers/STM32F1xx_HAL_Driver/Src/stm32f1xx_hal_rtc.c ****           /* Set RTC state */
 770:Drivers/STM32F1xx_HAL_Driver/Src/stm32f1xx_hal_rtc.c ****           hrtc->State = HAL_RTC_STATE_ERROR;
 771:Drivers/STM32F1xx_HAL_Driver/Src/stm32f1xx_hal_rtc.c ****           
 772:Drivers/STM32F1xx_HAL_Driver/Src/stm32f1xx_hal_rtc.c ****           /* Process Unlocked */ 
 773:Drivers/STM32F1xx_HAL_Driver/Src/stm32f1xx_hal_rtc.c ****           __HAL_UNLOCK(hrtc);
 774:Drivers/STM32F1xx_HAL_Driver/Src/stm32f1xx_hal_rtc.c ****           
 775:Drivers/STM32F1xx_HAL_Driver/Src/stm32f1xx_hal_rtc.c ****           return HAL_ERROR;
ARM GAS  /tmp/cc2ffejw.s 			page 15


 776:Drivers/STM32F1xx_HAL_Driver/Src/stm32f1xx_hal_rtc.c ****         }
 777:Drivers/STM32F1xx_HAL_Driver/Src/stm32f1xx_hal_rtc.c ****       }
 778:Drivers/STM32F1xx_HAL_Driver/Src/stm32f1xx_hal_rtc.c ****     }
 779:Drivers/STM32F1xx_HAL_Driver/Src/stm32f1xx_hal_rtc.c ****     
 780:Drivers/STM32F1xx_HAL_Driver/Src/stm32f1xx_hal_rtc.c **** 
 781:Drivers/STM32F1xx_HAL_Driver/Src/stm32f1xx_hal_rtc.c ****   }
 782:Drivers/STM32F1xx_HAL_Driver/Src/stm32f1xx_hal_rtc.c **** 
 783:Drivers/STM32F1xx_HAL_Driver/Src/stm32f1xx_hal_rtc.c ****   hrtc->State = HAL_RTC_STATE_READY ;
 784:Drivers/STM32F1xx_HAL_Driver/Src/stm32f1xx_hal_rtc.c ****   
 785:Drivers/STM32F1xx_HAL_Driver/Src/stm32f1xx_hal_rtc.c ****   /* Process Unlocked */ 
 786:Drivers/STM32F1xx_HAL_Driver/Src/stm32f1xx_hal_rtc.c ****   __HAL_UNLOCK(hrtc);
 787:Drivers/STM32F1xx_HAL_Driver/Src/stm32f1xx_hal_rtc.c ****   
 788:Drivers/STM32F1xx_HAL_Driver/Src/stm32f1xx_hal_rtc.c ****   return HAL_OK;    
 789:Drivers/STM32F1xx_HAL_Driver/Src/stm32f1xx_hal_rtc.c **** }
 790:Drivers/STM32F1xx_HAL_Driver/Src/stm32f1xx_hal_rtc.c **** 
 791:Drivers/STM32F1xx_HAL_Driver/Src/stm32f1xx_hal_rtc.c **** /**
 792:Drivers/STM32F1xx_HAL_Driver/Src/stm32f1xx_hal_rtc.c ****   * @brief  Gets RTC current date.
 793:Drivers/STM32F1xx_HAL_Driver/Src/stm32f1xx_hal_rtc.c ****   * @param  hrtc   pointer to a RTC_HandleTypeDef structure that contains
 794:Drivers/STM32F1xx_HAL_Driver/Src/stm32f1xx_hal_rtc.c ****   *                the configuration information for RTC.
 795:Drivers/STM32F1xx_HAL_Driver/Src/stm32f1xx_hal_rtc.c ****   * @param  sDate: Pointer to Date structure
 796:Drivers/STM32F1xx_HAL_Driver/Src/stm32f1xx_hal_rtc.c ****   * @param  Format: Specifies the format of the entered parameters.
 797:Drivers/STM32F1xx_HAL_Driver/Src/stm32f1xx_hal_rtc.c ****   *          This parameter can be one of the following values:
 798:Drivers/STM32F1xx_HAL_Driver/Src/stm32f1xx_hal_rtc.c ****   *            @arg RTC_FORMAT_BIN:  Binary data format 
 799:Drivers/STM32F1xx_HAL_Driver/Src/stm32f1xx_hal_rtc.c ****   *            @arg RTC_FORMAT_BCD:  BCD data format
 800:Drivers/STM32F1xx_HAL_Driver/Src/stm32f1xx_hal_rtc.c ****   * @retval HAL status
 801:Drivers/STM32F1xx_HAL_Driver/Src/stm32f1xx_hal_rtc.c ****   */
 802:Drivers/STM32F1xx_HAL_Driver/Src/stm32f1xx_hal_rtc.c **** HAL_StatusTypeDef HAL_RTC_GetDate(RTC_HandleTypeDef *hrtc, RTC_DateTypeDef *sDate, uint32_t Format)
 803:Drivers/STM32F1xx_HAL_Driver/Src/stm32f1xx_hal_rtc.c **** {
 804:Drivers/STM32F1xx_HAL_Driver/Src/stm32f1xx_hal_rtc.c ****   RTC_TimeTypeDef stime = {0U};
 805:Drivers/STM32F1xx_HAL_Driver/Src/stm32f1xx_hal_rtc.c ****   
 806:Drivers/STM32F1xx_HAL_Driver/Src/stm32f1xx_hal_rtc.c ****   /* Check input parameters */
 807:Drivers/STM32F1xx_HAL_Driver/Src/stm32f1xx_hal_rtc.c ****   if((hrtc == NULL) || (sDate == NULL))
 808:Drivers/STM32F1xx_HAL_Driver/Src/stm32f1xx_hal_rtc.c ****   {
 809:Drivers/STM32F1xx_HAL_Driver/Src/stm32f1xx_hal_rtc.c ****      return HAL_ERROR;
 810:Drivers/STM32F1xx_HAL_Driver/Src/stm32f1xx_hal_rtc.c ****   }
 811:Drivers/STM32F1xx_HAL_Driver/Src/stm32f1xx_hal_rtc.c ****   
 812:Drivers/STM32F1xx_HAL_Driver/Src/stm32f1xx_hal_rtc.c ****   /* Check the parameters */
 813:Drivers/STM32F1xx_HAL_Driver/Src/stm32f1xx_hal_rtc.c ****   assert_param(IS_RTC_FORMAT(Format));
 814:Drivers/STM32F1xx_HAL_Driver/Src/stm32f1xx_hal_rtc.c ****   
 815:Drivers/STM32F1xx_HAL_Driver/Src/stm32f1xx_hal_rtc.c ****   /* Call HAL_RTC_GetTime function to update date if counter higher than 24 hours */
 816:Drivers/STM32F1xx_HAL_Driver/Src/stm32f1xx_hal_rtc.c ****   if (HAL_RTC_GetTime(hrtc, &stime, RTC_FORMAT_BIN) != HAL_OK)
 817:Drivers/STM32F1xx_HAL_Driver/Src/stm32f1xx_hal_rtc.c ****   {
 818:Drivers/STM32F1xx_HAL_Driver/Src/stm32f1xx_hal_rtc.c ****     return HAL_ERROR;
 819:Drivers/STM32F1xx_HAL_Driver/Src/stm32f1xx_hal_rtc.c ****   }
 820:Drivers/STM32F1xx_HAL_Driver/Src/stm32f1xx_hal_rtc.c **** 
 821:Drivers/STM32F1xx_HAL_Driver/Src/stm32f1xx_hal_rtc.c ****   /* Fill the structure fields with the read parameters */
 822:Drivers/STM32F1xx_HAL_Driver/Src/stm32f1xx_hal_rtc.c ****   sDate->WeekDay  = hrtc->DateToUpdate.WeekDay;
 823:Drivers/STM32F1xx_HAL_Driver/Src/stm32f1xx_hal_rtc.c ****   sDate->Year     = hrtc->DateToUpdate.Year;
 824:Drivers/STM32F1xx_HAL_Driver/Src/stm32f1xx_hal_rtc.c ****   sDate->Month    = hrtc->DateToUpdate.Month;
 825:Drivers/STM32F1xx_HAL_Driver/Src/stm32f1xx_hal_rtc.c ****   sDate->Date     = hrtc->DateToUpdate.Date;
 826:Drivers/STM32F1xx_HAL_Driver/Src/stm32f1xx_hal_rtc.c **** 
 827:Drivers/STM32F1xx_HAL_Driver/Src/stm32f1xx_hal_rtc.c ****   /* Check the input parameters format */
 828:Drivers/STM32F1xx_HAL_Driver/Src/stm32f1xx_hal_rtc.c ****   if(Format != RTC_FORMAT_BIN)
 829:Drivers/STM32F1xx_HAL_Driver/Src/stm32f1xx_hal_rtc.c ****   {    
 830:Drivers/STM32F1xx_HAL_Driver/Src/stm32f1xx_hal_rtc.c ****     /* Convert the date structure parameters to BCD format */
 831:Drivers/STM32F1xx_HAL_Driver/Src/stm32f1xx_hal_rtc.c ****     sDate->Year   = (uint8_t)RTC_ByteToBcd2(sDate->Year);
 832:Drivers/STM32F1xx_HAL_Driver/Src/stm32f1xx_hal_rtc.c ****     sDate->Month  = (uint8_t)RTC_ByteToBcd2(sDate->Month);
ARM GAS  /tmp/cc2ffejw.s 			page 16


 833:Drivers/STM32F1xx_HAL_Driver/Src/stm32f1xx_hal_rtc.c ****     sDate->Date   = (uint8_t)RTC_ByteToBcd2(sDate->Date);  
 834:Drivers/STM32F1xx_HAL_Driver/Src/stm32f1xx_hal_rtc.c ****   }
 835:Drivers/STM32F1xx_HAL_Driver/Src/stm32f1xx_hal_rtc.c ****   return HAL_OK;
 836:Drivers/STM32F1xx_HAL_Driver/Src/stm32f1xx_hal_rtc.c **** }
 837:Drivers/STM32F1xx_HAL_Driver/Src/stm32f1xx_hal_rtc.c **** 
 838:Drivers/STM32F1xx_HAL_Driver/Src/stm32f1xx_hal_rtc.c **** /**
 839:Drivers/STM32F1xx_HAL_Driver/Src/stm32f1xx_hal_rtc.c ****   * @}
 840:Drivers/STM32F1xx_HAL_Driver/Src/stm32f1xx_hal_rtc.c ****   */
 841:Drivers/STM32F1xx_HAL_Driver/Src/stm32f1xx_hal_rtc.c **** 
 842:Drivers/STM32F1xx_HAL_Driver/Src/stm32f1xx_hal_rtc.c **** /** @defgroup RTC_Exported_Functions_Group3 Alarm functions
 843:Drivers/STM32F1xx_HAL_Driver/Src/stm32f1xx_hal_rtc.c ****  *  @brief   RTC Alarm functions
 844:Drivers/STM32F1xx_HAL_Driver/Src/stm32f1xx_hal_rtc.c ****  *
 845:Drivers/STM32F1xx_HAL_Driver/Src/stm32f1xx_hal_rtc.c **** @verbatim   
 846:Drivers/STM32F1xx_HAL_Driver/Src/stm32f1xx_hal_rtc.c ****  ===============================================================================
 847:Drivers/STM32F1xx_HAL_Driver/Src/stm32f1xx_hal_rtc.c ****                  ##### RTC Alarm functions #####
 848:Drivers/STM32F1xx_HAL_Driver/Src/stm32f1xx_hal_rtc.c ****  ===============================================================================  
 849:Drivers/STM32F1xx_HAL_Driver/Src/stm32f1xx_hal_rtc.c ****  
 850:Drivers/STM32F1xx_HAL_Driver/Src/stm32f1xx_hal_rtc.c ****  [..] This section provides functions allowing to configure Alarm feature
 851:Drivers/STM32F1xx_HAL_Driver/Src/stm32f1xx_hal_rtc.c **** 
 852:Drivers/STM32F1xx_HAL_Driver/Src/stm32f1xx_hal_rtc.c **** @endverbatim
 853:Drivers/STM32F1xx_HAL_Driver/Src/stm32f1xx_hal_rtc.c ****   * @{
 854:Drivers/STM32F1xx_HAL_Driver/Src/stm32f1xx_hal_rtc.c ****   */
 855:Drivers/STM32F1xx_HAL_Driver/Src/stm32f1xx_hal_rtc.c **** 
 856:Drivers/STM32F1xx_HAL_Driver/Src/stm32f1xx_hal_rtc.c **** /**
 857:Drivers/STM32F1xx_HAL_Driver/Src/stm32f1xx_hal_rtc.c ****   * @brief  Sets the specified RTC Alarm.
 858:Drivers/STM32F1xx_HAL_Driver/Src/stm32f1xx_hal_rtc.c ****   * @param  hrtc   pointer to a RTC_HandleTypeDef structure that contains
 859:Drivers/STM32F1xx_HAL_Driver/Src/stm32f1xx_hal_rtc.c ****   *                the configuration information for RTC.
 860:Drivers/STM32F1xx_HAL_Driver/Src/stm32f1xx_hal_rtc.c ****   * @param  sAlarm: Pointer to Alarm structure
 861:Drivers/STM32F1xx_HAL_Driver/Src/stm32f1xx_hal_rtc.c ****   * @param  Format: Specifies the format of the entered parameters.
 862:Drivers/STM32F1xx_HAL_Driver/Src/stm32f1xx_hal_rtc.c ****   *          This parameter can be one of the following values:
 863:Drivers/STM32F1xx_HAL_Driver/Src/stm32f1xx_hal_rtc.c ****   *             @arg RTC_FORMAT_BIN: Binary data format 
 864:Drivers/STM32F1xx_HAL_Driver/Src/stm32f1xx_hal_rtc.c ****   *             @arg RTC_FORMAT_BCD: BCD data format
 865:Drivers/STM32F1xx_HAL_Driver/Src/stm32f1xx_hal_rtc.c ****   * @retval HAL status
 866:Drivers/STM32F1xx_HAL_Driver/Src/stm32f1xx_hal_rtc.c ****   */
 867:Drivers/STM32F1xx_HAL_Driver/Src/stm32f1xx_hal_rtc.c **** HAL_StatusTypeDef HAL_RTC_SetAlarm(RTC_HandleTypeDef *hrtc, RTC_AlarmTypeDef *sAlarm, uint32_t Form
 868:Drivers/STM32F1xx_HAL_Driver/Src/stm32f1xx_hal_rtc.c **** {
 869:Drivers/STM32F1xx_HAL_Driver/Src/stm32f1xx_hal_rtc.c ****   uint32_t counter_alarm = 0U, counter_time;
 870:Drivers/STM32F1xx_HAL_Driver/Src/stm32f1xx_hal_rtc.c ****   RTC_TimeTypeDef stime = {0U};
 871:Drivers/STM32F1xx_HAL_Driver/Src/stm32f1xx_hal_rtc.c ****   
 872:Drivers/STM32F1xx_HAL_Driver/Src/stm32f1xx_hal_rtc.c ****   /* Check input parameters */
 873:Drivers/STM32F1xx_HAL_Driver/Src/stm32f1xx_hal_rtc.c ****   if((hrtc == NULL) || (sAlarm == NULL))
 874:Drivers/STM32F1xx_HAL_Driver/Src/stm32f1xx_hal_rtc.c ****   {
 875:Drivers/STM32F1xx_HAL_Driver/Src/stm32f1xx_hal_rtc.c ****      return HAL_ERROR;
 876:Drivers/STM32F1xx_HAL_Driver/Src/stm32f1xx_hal_rtc.c ****   }
 877:Drivers/STM32F1xx_HAL_Driver/Src/stm32f1xx_hal_rtc.c ****   
 878:Drivers/STM32F1xx_HAL_Driver/Src/stm32f1xx_hal_rtc.c ****   /* Check the parameters */
 879:Drivers/STM32F1xx_HAL_Driver/Src/stm32f1xx_hal_rtc.c ****   assert_param(IS_RTC_FORMAT(Format));
 880:Drivers/STM32F1xx_HAL_Driver/Src/stm32f1xx_hal_rtc.c ****   assert_param(IS_RTC_ALARM(sAlarm->Alarm));
 881:Drivers/STM32F1xx_HAL_Driver/Src/stm32f1xx_hal_rtc.c **** 
 882:Drivers/STM32F1xx_HAL_Driver/Src/stm32f1xx_hal_rtc.c ****   /* Process Locked */ 
 883:Drivers/STM32F1xx_HAL_Driver/Src/stm32f1xx_hal_rtc.c ****   __HAL_LOCK(hrtc);
 884:Drivers/STM32F1xx_HAL_Driver/Src/stm32f1xx_hal_rtc.c ****   
 885:Drivers/STM32F1xx_HAL_Driver/Src/stm32f1xx_hal_rtc.c ****   hrtc->State = HAL_RTC_STATE_BUSY;
 886:Drivers/STM32F1xx_HAL_Driver/Src/stm32f1xx_hal_rtc.c ****   
 887:Drivers/STM32F1xx_HAL_Driver/Src/stm32f1xx_hal_rtc.c ****   /* Call HAL_RTC_GetTime function to update date if counter higher than 24 hours */
 888:Drivers/STM32F1xx_HAL_Driver/Src/stm32f1xx_hal_rtc.c ****   if (HAL_RTC_GetTime(hrtc, &stime, RTC_FORMAT_BIN) != HAL_OK)
 889:Drivers/STM32F1xx_HAL_Driver/Src/stm32f1xx_hal_rtc.c ****   {
ARM GAS  /tmp/cc2ffejw.s 			page 17


 890:Drivers/STM32F1xx_HAL_Driver/Src/stm32f1xx_hal_rtc.c ****     return HAL_ERROR;
 891:Drivers/STM32F1xx_HAL_Driver/Src/stm32f1xx_hal_rtc.c ****   }
 892:Drivers/STM32F1xx_HAL_Driver/Src/stm32f1xx_hal_rtc.c **** 
 893:Drivers/STM32F1xx_HAL_Driver/Src/stm32f1xx_hal_rtc.c ****   /* Convert time in seconds */
 894:Drivers/STM32F1xx_HAL_Driver/Src/stm32f1xx_hal_rtc.c ****   counter_time = (uint32_t)(((uint32_t)stime.Hours * 3600U) + \
 895:Drivers/STM32F1xx_HAL_Driver/Src/stm32f1xx_hal_rtc.c ****                       ((uint32_t)stime.Minutes * 60U) + \
 896:Drivers/STM32F1xx_HAL_Driver/Src/stm32f1xx_hal_rtc.c ****                       ((uint32_t)stime.Seconds));  
 897:Drivers/STM32F1xx_HAL_Driver/Src/stm32f1xx_hal_rtc.c **** 
 898:Drivers/STM32F1xx_HAL_Driver/Src/stm32f1xx_hal_rtc.c ****   if(Format == RTC_FORMAT_BIN)
 899:Drivers/STM32F1xx_HAL_Driver/Src/stm32f1xx_hal_rtc.c ****   {
 900:Drivers/STM32F1xx_HAL_Driver/Src/stm32f1xx_hal_rtc.c ****     assert_param(IS_RTC_HOUR24(sAlarm->AlarmTime.Hours));
 901:Drivers/STM32F1xx_HAL_Driver/Src/stm32f1xx_hal_rtc.c ****     assert_param(IS_RTC_MINUTES(sAlarm->AlarmTime.Minutes));
 902:Drivers/STM32F1xx_HAL_Driver/Src/stm32f1xx_hal_rtc.c ****     assert_param(IS_RTC_SECONDS(sAlarm->AlarmTime.Seconds));
 903:Drivers/STM32F1xx_HAL_Driver/Src/stm32f1xx_hal_rtc.c ****     
 904:Drivers/STM32F1xx_HAL_Driver/Src/stm32f1xx_hal_rtc.c ****     counter_alarm = (uint32_t)(((uint32_t)sAlarm->AlarmTime.Hours * 3600U) + \
 905:Drivers/STM32F1xx_HAL_Driver/Src/stm32f1xx_hal_rtc.c ****                         ((uint32_t)sAlarm->AlarmTime.Minutes * 60U) + \
 906:Drivers/STM32F1xx_HAL_Driver/Src/stm32f1xx_hal_rtc.c ****                         ((uint32_t)sAlarm->AlarmTime.Seconds));  
 907:Drivers/STM32F1xx_HAL_Driver/Src/stm32f1xx_hal_rtc.c ****   }
 908:Drivers/STM32F1xx_HAL_Driver/Src/stm32f1xx_hal_rtc.c ****   else
 909:Drivers/STM32F1xx_HAL_Driver/Src/stm32f1xx_hal_rtc.c ****   {
 910:Drivers/STM32F1xx_HAL_Driver/Src/stm32f1xx_hal_rtc.c ****     assert_param(IS_RTC_HOUR24(RTC_Bcd2ToByte(sAlarm->AlarmTime.Hours)));
 911:Drivers/STM32F1xx_HAL_Driver/Src/stm32f1xx_hal_rtc.c ****     assert_param(IS_RTC_MINUTES(RTC_Bcd2ToByte(sAlarm->AlarmTime.Minutes)));
 912:Drivers/STM32F1xx_HAL_Driver/Src/stm32f1xx_hal_rtc.c ****     assert_param(IS_RTC_SECONDS(RTC_Bcd2ToByte(sAlarm->AlarmTime.Seconds)));
 913:Drivers/STM32F1xx_HAL_Driver/Src/stm32f1xx_hal_rtc.c ****     
 914:Drivers/STM32F1xx_HAL_Driver/Src/stm32f1xx_hal_rtc.c ****     counter_alarm = (((uint32_t)(RTC_Bcd2ToByte(sAlarm->AlarmTime.Hours)) * 3600U) + \
 915:Drivers/STM32F1xx_HAL_Driver/Src/stm32f1xx_hal_rtc.c ****               ((uint32_t)(RTC_Bcd2ToByte(sAlarm->AlarmTime.Minutes)) * 60U) + \
 916:Drivers/STM32F1xx_HAL_Driver/Src/stm32f1xx_hal_rtc.c ****               ((uint32_t)RTC_Bcd2ToByte(sAlarm->AlarmTime.Seconds)));   
 917:Drivers/STM32F1xx_HAL_Driver/Src/stm32f1xx_hal_rtc.c ****   }
 918:Drivers/STM32F1xx_HAL_Driver/Src/stm32f1xx_hal_rtc.c **** 
 919:Drivers/STM32F1xx_HAL_Driver/Src/stm32f1xx_hal_rtc.c ****   /* Check that requested alarm should expire in the same day (otherwise add 1 day) */
 920:Drivers/STM32F1xx_HAL_Driver/Src/stm32f1xx_hal_rtc.c ****   if (counter_alarm < counter_time)
 921:Drivers/STM32F1xx_HAL_Driver/Src/stm32f1xx_hal_rtc.c ****   {
 922:Drivers/STM32F1xx_HAL_Driver/Src/stm32f1xx_hal_rtc.c ****     /* Add 1 day to alarm counter*/
 923:Drivers/STM32F1xx_HAL_Driver/Src/stm32f1xx_hal_rtc.c ****     counter_alarm += (uint32_t)(24U * 3600U);
 924:Drivers/STM32F1xx_HAL_Driver/Src/stm32f1xx_hal_rtc.c ****   }
 925:Drivers/STM32F1xx_HAL_Driver/Src/stm32f1xx_hal_rtc.c **** 
 926:Drivers/STM32F1xx_HAL_Driver/Src/stm32f1xx_hal_rtc.c ****   /* Write Alarm counter in RTC registers */
 927:Drivers/STM32F1xx_HAL_Driver/Src/stm32f1xx_hal_rtc.c ****   if (RTC_WriteAlarmCounter(hrtc, counter_alarm) != HAL_OK)
 928:Drivers/STM32F1xx_HAL_Driver/Src/stm32f1xx_hal_rtc.c ****   {
 929:Drivers/STM32F1xx_HAL_Driver/Src/stm32f1xx_hal_rtc.c ****     /* Set RTC state */
 930:Drivers/STM32F1xx_HAL_Driver/Src/stm32f1xx_hal_rtc.c ****     hrtc->State = HAL_RTC_STATE_ERROR;
 931:Drivers/STM32F1xx_HAL_Driver/Src/stm32f1xx_hal_rtc.c ****     
 932:Drivers/STM32F1xx_HAL_Driver/Src/stm32f1xx_hal_rtc.c ****     /* Process Unlocked */ 
 933:Drivers/STM32F1xx_HAL_Driver/Src/stm32f1xx_hal_rtc.c ****     __HAL_UNLOCK(hrtc);
 934:Drivers/STM32F1xx_HAL_Driver/Src/stm32f1xx_hal_rtc.c ****     
 935:Drivers/STM32F1xx_HAL_Driver/Src/stm32f1xx_hal_rtc.c ****     return HAL_ERROR;
 936:Drivers/STM32F1xx_HAL_Driver/Src/stm32f1xx_hal_rtc.c ****   }
 937:Drivers/STM32F1xx_HAL_Driver/Src/stm32f1xx_hal_rtc.c ****   else
 938:Drivers/STM32F1xx_HAL_Driver/Src/stm32f1xx_hal_rtc.c ****   {
 939:Drivers/STM32F1xx_HAL_Driver/Src/stm32f1xx_hal_rtc.c ****     hrtc->State = HAL_RTC_STATE_READY;
 940:Drivers/STM32F1xx_HAL_Driver/Src/stm32f1xx_hal_rtc.c ****   
 941:Drivers/STM32F1xx_HAL_Driver/Src/stm32f1xx_hal_rtc.c ****    __HAL_UNLOCK(hrtc); 
 942:Drivers/STM32F1xx_HAL_Driver/Src/stm32f1xx_hal_rtc.c ****      
 943:Drivers/STM32F1xx_HAL_Driver/Src/stm32f1xx_hal_rtc.c ****    return HAL_OK;
 944:Drivers/STM32F1xx_HAL_Driver/Src/stm32f1xx_hal_rtc.c ****   }
 945:Drivers/STM32F1xx_HAL_Driver/Src/stm32f1xx_hal_rtc.c **** }
 946:Drivers/STM32F1xx_HAL_Driver/Src/stm32f1xx_hal_rtc.c **** 
ARM GAS  /tmp/cc2ffejw.s 			page 18


 947:Drivers/STM32F1xx_HAL_Driver/Src/stm32f1xx_hal_rtc.c **** /**
 948:Drivers/STM32F1xx_HAL_Driver/Src/stm32f1xx_hal_rtc.c ****   * @brief  Sets the specified RTC Alarm with Interrupt 
 949:Drivers/STM32F1xx_HAL_Driver/Src/stm32f1xx_hal_rtc.c ****   * @param  hrtc   pointer to a RTC_HandleTypeDef structure that contains
 950:Drivers/STM32F1xx_HAL_Driver/Src/stm32f1xx_hal_rtc.c ****   *                the configuration information for RTC.
 951:Drivers/STM32F1xx_HAL_Driver/Src/stm32f1xx_hal_rtc.c ****   * @param  sAlarm: Pointer to Alarm structure
 952:Drivers/STM32F1xx_HAL_Driver/Src/stm32f1xx_hal_rtc.c ****   * @param  Format: Specifies the format of the entered parameters.
 953:Drivers/STM32F1xx_HAL_Driver/Src/stm32f1xx_hal_rtc.c ****   *          This parameter can be one of the following values:
 954:Drivers/STM32F1xx_HAL_Driver/Src/stm32f1xx_hal_rtc.c ****   *             @arg RTC_FORMAT_BIN: Binary data format 
 955:Drivers/STM32F1xx_HAL_Driver/Src/stm32f1xx_hal_rtc.c ****   *             @arg RTC_FORMAT_BCD: BCD data format
 956:Drivers/STM32F1xx_HAL_Driver/Src/stm32f1xx_hal_rtc.c ****   * @note   The HAL_RTC_SetTime() must be called before enabling the Alarm feature.   
 957:Drivers/STM32F1xx_HAL_Driver/Src/stm32f1xx_hal_rtc.c ****   * @retval HAL status
 958:Drivers/STM32F1xx_HAL_Driver/Src/stm32f1xx_hal_rtc.c ****   */
 959:Drivers/STM32F1xx_HAL_Driver/Src/stm32f1xx_hal_rtc.c **** HAL_StatusTypeDef HAL_RTC_SetAlarm_IT(RTC_HandleTypeDef *hrtc, RTC_AlarmTypeDef *sAlarm, uint32_t F
 960:Drivers/STM32F1xx_HAL_Driver/Src/stm32f1xx_hal_rtc.c **** {
 961:Drivers/STM32F1xx_HAL_Driver/Src/stm32f1xx_hal_rtc.c ****   uint32_t counter_alarm = 0U, counter_time;
 962:Drivers/STM32F1xx_HAL_Driver/Src/stm32f1xx_hal_rtc.c ****   RTC_TimeTypeDef stime = {0U};
 963:Drivers/STM32F1xx_HAL_Driver/Src/stm32f1xx_hal_rtc.c ****   
 964:Drivers/STM32F1xx_HAL_Driver/Src/stm32f1xx_hal_rtc.c ****   /* Check input parameters */
 965:Drivers/STM32F1xx_HAL_Driver/Src/stm32f1xx_hal_rtc.c ****   if((hrtc == NULL) || (sAlarm == NULL))
 966:Drivers/STM32F1xx_HAL_Driver/Src/stm32f1xx_hal_rtc.c ****   {
 967:Drivers/STM32F1xx_HAL_Driver/Src/stm32f1xx_hal_rtc.c ****      return HAL_ERROR;
 968:Drivers/STM32F1xx_HAL_Driver/Src/stm32f1xx_hal_rtc.c ****   }
 969:Drivers/STM32F1xx_HAL_Driver/Src/stm32f1xx_hal_rtc.c ****   
 970:Drivers/STM32F1xx_HAL_Driver/Src/stm32f1xx_hal_rtc.c ****   /* Check the parameters */
 971:Drivers/STM32F1xx_HAL_Driver/Src/stm32f1xx_hal_rtc.c ****   assert_param(IS_RTC_FORMAT(Format));
 972:Drivers/STM32F1xx_HAL_Driver/Src/stm32f1xx_hal_rtc.c ****   assert_param(IS_RTC_ALARM(sAlarm->Alarm));
 973:Drivers/STM32F1xx_HAL_Driver/Src/stm32f1xx_hal_rtc.c **** 
 974:Drivers/STM32F1xx_HAL_Driver/Src/stm32f1xx_hal_rtc.c ****   /* Process Locked */ 
 975:Drivers/STM32F1xx_HAL_Driver/Src/stm32f1xx_hal_rtc.c ****   __HAL_LOCK(hrtc);
 976:Drivers/STM32F1xx_HAL_Driver/Src/stm32f1xx_hal_rtc.c ****   
 977:Drivers/STM32F1xx_HAL_Driver/Src/stm32f1xx_hal_rtc.c ****   hrtc->State = HAL_RTC_STATE_BUSY;
 978:Drivers/STM32F1xx_HAL_Driver/Src/stm32f1xx_hal_rtc.c ****   
 979:Drivers/STM32F1xx_HAL_Driver/Src/stm32f1xx_hal_rtc.c ****   /* Call HAL_RTC_GetTime function to update date if counter higher than 24 hours */
 980:Drivers/STM32F1xx_HAL_Driver/Src/stm32f1xx_hal_rtc.c ****   if (HAL_RTC_GetTime(hrtc, &stime, RTC_FORMAT_BIN) != HAL_OK)
 981:Drivers/STM32F1xx_HAL_Driver/Src/stm32f1xx_hal_rtc.c ****   {
 982:Drivers/STM32F1xx_HAL_Driver/Src/stm32f1xx_hal_rtc.c ****     return HAL_ERROR;
 983:Drivers/STM32F1xx_HAL_Driver/Src/stm32f1xx_hal_rtc.c ****   }
 984:Drivers/STM32F1xx_HAL_Driver/Src/stm32f1xx_hal_rtc.c **** 
 985:Drivers/STM32F1xx_HAL_Driver/Src/stm32f1xx_hal_rtc.c ****   /* Convert time in seconds */
 986:Drivers/STM32F1xx_HAL_Driver/Src/stm32f1xx_hal_rtc.c ****   counter_time = (uint32_t)(((uint32_t)stime.Hours * 3600U) + \
 987:Drivers/STM32F1xx_HAL_Driver/Src/stm32f1xx_hal_rtc.c ****                       ((uint32_t)stime.Minutes * 60U) + \
 988:Drivers/STM32F1xx_HAL_Driver/Src/stm32f1xx_hal_rtc.c ****                       ((uint32_t)stime.Seconds));  
 989:Drivers/STM32F1xx_HAL_Driver/Src/stm32f1xx_hal_rtc.c **** 
 990:Drivers/STM32F1xx_HAL_Driver/Src/stm32f1xx_hal_rtc.c ****   if(Format == RTC_FORMAT_BIN)
 991:Drivers/STM32F1xx_HAL_Driver/Src/stm32f1xx_hal_rtc.c ****   {
 992:Drivers/STM32F1xx_HAL_Driver/Src/stm32f1xx_hal_rtc.c ****     assert_param(IS_RTC_HOUR24(sAlarm->AlarmTime.Hours));
 993:Drivers/STM32F1xx_HAL_Driver/Src/stm32f1xx_hal_rtc.c ****     assert_param(IS_RTC_MINUTES(sAlarm->AlarmTime.Minutes));
 994:Drivers/STM32F1xx_HAL_Driver/Src/stm32f1xx_hal_rtc.c ****     assert_param(IS_RTC_SECONDS(sAlarm->AlarmTime.Seconds));
 995:Drivers/STM32F1xx_HAL_Driver/Src/stm32f1xx_hal_rtc.c ****     
 996:Drivers/STM32F1xx_HAL_Driver/Src/stm32f1xx_hal_rtc.c ****     counter_alarm = (uint32_t)(((uint32_t)sAlarm->AlarmTime.Hours * 3600U) + \
 997:Drivers/STM32F1xx_HAL_Driver/Src/stm32f1xx_hal_rtc.c ****       ((uint32_t)sAlarm->AlarmTime.Minutes * 60U) + \
 998:Drivers/STM32F1xx_HAL_Driver/Src/stm32f1xx_hal_rtc.c ****         ((uint32_t)sAlarm->AlarmTime.Seconds));  
 999:Drivers/STM32F1xx_HAL_Driver/Src/stm32f1xx_hal_rtc.c ****   }
1000:Drivers/STM32F1xx_HAL_Driver/Src/stm32f1xx_hal_rtc.c ****   else
1001:Drivers/STM32F1xx_HAL_Driver/Src/stm32f1xx_hal_rtc.c ****   {
1002:Drivers/STM32F1xx_HAL_Driver/Src/stm32f1xx_hal_rtc.c ****     assert_param(IS_RTC_HOUR24(RTC_Bcd2ToByte(sAlarm->AlarmTime.Hours)));
1003:Drivers/STM32F1xx_HAL_Driver/Src/stm32f1xx_hal_rtc.c ****     assert_param(IS_RTC_MINUTES(RTC_Bcd2ToByte(sAlarm->AlarmTime.Minutes)));
ARM GAS  /tmp/cc2ffejw.s 			page 19


1004:Drivers/STM32F1xx_HAL_Driver/Src/stm32f1xx_hal_rtc.c ****     assert_param(IS_RTC_SECONDS(RTC_Bcd2ToByte(sAlarm->AlarmTime.Seconds)));
1005:Drivers/STM32F1xx_HAL_Driver/Src/stm32f1xx_hal_rtc.c ****     
1006:Drivers/STM32F1xx_HAL_Driver/Src/stm32f1xx_hal_rtc.c ****     counter_alarm = (((uint32_t)(RTC_Bcd2ToByte(sAlarm->AlarmTime.Hours)) * 3600U) + \
1007:Drivers/STM32F1xx_HAL_Driver/Src/stm32f1xx_hal_rtc.c ****                      ((uint32_t)(RTC_Bcd2ToByte(sAlarm->AlarmTime.Minutes)) * 60U) + \
1008:Drivers/STM32F1xx_HAL_Driver/Src/stm32f1xx_hal_rtc.c ****                      ((uint32_t)RTC_Bcd2ToByte(sAlarm->AlarmTime.Seconds)));   
1009:Drivers/STM32F1xx_HAL_Driver/Src/stm32f1xx_hal_rtc.c ****   }
1010:Drivers/STM32F1xx_HAL_Driver/Src/stm32f1xx_hal_rtc.c ****   
1011:Drivers/STM32F1xx_HAL_Driver/Src/stm32f1xx_hal_rtc.c ****   /* Check that requested alarm should expire in the same day (otherwise add 1 day) */
1012:Drivers/STM32F1xx_HAL_Driver/Src/stm32f1xx_hal_rtc.c ****   if (counter_alarm < counter_time)
1013:Drivers/STM32F1xx_HAL_Driver/Src/stm32f1xx_hal_rtc.c ****   {
1014:Drivers/STM32F1xx_HAL_Driver/Src/stm32f1xx_hal_rtc.c ****     /* Add 1 day to alarm counter*/
1015:Drivers/STM32F1xx_HAL_Driver/Src/stm32f1xx_hal_rtc.c ****     counter_alarm += (uint32_t)(24U * 3600U);
1016:Drivers/STM32F1xx_HAL_Driver/Src/stm32f1xx_hal_rtc.c ****   }
1017:Drivers/STM32F1xx_HAL_Driver/Src/stm32f1xx_hal_rtc.c **** 
1018:Drivers/STM32F1xx_HAL_Driver/Src/stm32f1xx_hal_rtc.c ****   /* Write alarm counter in RTC registers */
1019:Drivers/STM32F1xx_HAL_Driver/Src/stm32f1xx_hal_rtc.c ****   if (RTC_WriteAlarmCounter(hrtc, counter_alarm) != HAL_OK)
1020:Drivers/STM32F1xx_HAL_Driver/Src/stm32f1xx_hal_rtc.c ****   {
1021:Drivers/STM32F1xx_HAL_Driver/Src/stm32f1xx_hal_rtc.c ****     /* Set RTC state */
1022:Drivers/STM32F1xx_HAL_Driver/Src/stm32f1xx_hal_rtc.c ****     hrtc->State = HAL_RTC_STATE_ERROR;
1023:Drivers/STM32F1xx_HAL_Driver/Src/stm32f1xx_hal_rtc.c ****     
1024:Drivers/STM32F1xx_HAL_Driver/Src/stm32f1xx_hal_rtc.c ****     /* Process Unlocked */ 
1025:Drivers/STM32F1xx_HAL_Driver/Src/stm32f1xx_hal_rtc.c ****     __HAL_UNLOCK(hrtc);
1026:Drivers/STM32F1xx_HAL_Driver/Src/stm32f1xx_hal_rtc.c ****     
1027:Drivers/STM32F1xx_HAL_Driver/Src/stm32f1xx_hal_rtc.c ****     return HAL_ERROR;
1028:Drivers/STM32F1xx_HAL_Driver/Src/stm32f1xx_hal_rtc.c ****   }
1029:Drivers/STM32F1xx_HAL_Driver/Src/stm32f1xx_hal_rtc.c ****   else
1030:Drivers/STM32F1xx_HAL_Driver/Src/stm32f1xx_hal_rtc.c ****   {
1031:Drivers/STM32F1xx_HAL_Driver/Src/stm32f1xx_hal_rtc.c ****     /* Clear flag alarm A */
1032:Drivers/STM32F1xx_HAL_Driver/Src/stm32f1xx_hal_rtc.c ****     __HAL_RTC_ALARM_CLEAR_FLAG(hrtc, RTC_FLAG_ALRAF);
1033:Drivers/STM32F1xx_HAL_Driver/Src/stm32f1xx_hal_rtc.c ****     
1034:Drivers/STM32F1xx_HAL_Driver/Src/stm32f1xx_hal_rtc.c ****     /* Configure the Alarm interrupt */
1035:Drivers/STM32F1xx_HAL_Driver/Src/stm32f1xx_hal_rtc.c ****     __HAL_RTC_ALARM_ENABLE_IT(hrtc,RTC_IT_ALRA);
1036:Drivers/STM32F1xx_HAL_Driver/Src/stm32f1xx_hal_rtc.c ****     
1037:Drivers/STM32F1xx_HAL_Driver/Src/stm32f1xx_hal_rtc.c ****     /* RTC Alarm Interrupt Configuration: EXTI configuration */
1038:Drivers/STM32F1xx_HAL_Driver/Src/stm32f1xx_hal_rtc.c ****     __HAL_RTC_ALARM_EXTI_ENABLE_IT();
1039:Drivers/STM32F1xx_HAL_Driver/Src/stm32f1xx_hal_rtc.c ****     
1040:Drivers/STM32F1xx_HAL_Driver/Src/stm32f1xx_hal_rtc.c ****     __HAL_RTC_ALARM_EXTI_ENABLE_RISING_EDGE();
1041:Drivers/STM32F1xx_HAL_Driver/Src/stm32f1xx_hal_rtc.c **** 
1042:Drivers/STM32F1xx_HAL_Driver/Src/stm32f1xx_hal_rtc.c ****     hrtc->State = HAL_RTC_STATE_READY;
1043:Drivers/STM32F1xx_HAL_Driver/Src/stm32f1xx_hal_rtc.c ****   
1044:Drivers/STM32F1xx_HAL_Driver/Src/stm32f1xx_hal_rtc.c ****    __HAL_UNLOCK(hrtc); 
1045:Drivers/STM32F1xx_HAL_Driver/Src/stm32f1xx_hal_rtc.c ****      
1046:Drivers/STM32F1xx_HAL_Driver/Src/stm32f1xx_hal_rtc.c ****    return HAL_OK;
1047:Drivers/STM32F1xx_HAL_Driver/Src/stm32f1xx_hal_rtc.c ****   }
1048:Drivers/STM32F1xx_HAL_Driver/Src/stm32f1xx_hal_rtc.c **** }
1049:Drivers/STM32F1xx_HAL_Driver/Src/stm32f1xx_hal_rtc.c **** 
1050:Drivers/STM32F1xx_HAL_Driver/Src/stm32f1xx_hal_rtc.c **** /**
1051:Drivers/STM32F1xx_HAL_Driver/Src/stm32f1xx_hal_rtc.c ****   * @brief  Gets the RTC Alarm value and masks.
1052:Drivers/STM32F1xx_HAL_Driver/Src/stm32f1xx_hal_rtc.c ****   * @param  hrtc   pointer to a RTC_HandleTypeDef structure that contains
1053:Drivers/STM32F1xx_HAL_Driver/Src/stm32f1xx_hal_rtc.c ****   *                the configuration information for RTC.
1054:Drivers/STM32F1xx_HAL_Driver/Src/stm32f1xx_hal_rtc.c ****   * @param  sAlarm: Pointer to Date structure
1055:Drivers/STM32F1xx_HAL_Driver/Src/stm32f1xx_hal_rtc.c ****   * @param  Alarm: Specifies the Alarm.
1056:Drivers/STM32F1xx_HAL_Driver/Src/stm32f1xx_hal_rtc.c ****   *          This parameter can be one of the following values:
1057:Drivers/STM32F1xx_HAL_Driver/Src/stm32f1xx_hal_rtc.c ****   *             @arg RTC_ALARM_A: Alarm
1058:Drivers/STM32F1xx_HAL_Driver/Src/stm32f1xx_hal_rtc.c ****   * @param  Format: Specifies the format of the entered parameters.
1059:Drivers/STM32F1xx_HAL_Driver/Src/stm32f1xx_hal_rtc.c ****   *          This parameter can be one of the following values:
1060:Drivers/STM32F1xx_HAL_Driver/Src/stm32f1xx_hal_rtc.c ****   *             @arg RTC_FORMAT_BIN: Binary data format 
ARM GAS  /tmp/cc2ffejw.s 			page 20


1061:Drivers/STM32F1xx_HAL_Driver/Src/stm32f1xx_hal_rtc.c ****   *             @arg RTC_FORMAT_BCD: BCD data format
1062:Drivers/STM32F1xx_HAL_Driver/Src/stm32f1xx_hal_rtc.c ****   * @retval HAL status
1063:Drivers/STM32F1xx_HAL_Driver/Src/stm32f1xx_hal_rtc.c ****   */
1064:Drivers/STM32F1xx_HAL_Driver/Src/stm32f1xx_hal_rtc.c **** HAL_StatusTypeDef HAL_RTC_GetAlarm(RTC_HandleTypeDef *hrtc, RTC_AlarmTypeDef *sAlarm, uint32_t Alar
1065:Drivers/STM32F1xx_HAL_Driver/Src/stm32f1xx_hal_rtc.c **** {
1066:Drivers/STM32F1xx_HAL_Driver/Src/stm32f1xx_hal_rtc.c ****   uint32_t counter_alarm = 0U;
1067:Drivers/STM32F1xx_HAL_Driver/Src/stm32f1xx_hal_rtc.c **** 
1068:Drivers/STM32F1xx_HAL_Driver/Src/stm32f1xx_hal_rtc.c ****   /* Prevent unused argument(s) compilation warning */
1069:Drivers/STM32F1xx_HAL_Driver/Src/stm32f1xx_hal_rtc.c ****   UNUSED(Alarm);
1070:Drivers/STM32F1xx_HAL_Driver/Src/stm32f1xx_hal_rtc.c **** 
1071:Drivers/STM32F1xx_HAL_Driver/Src/stm32f1xx_hal_rtc.c ****   /* Check input parameters */
1072:Drivers/STM32F1xx_HAL_Driver/Src/stm32f1xx_hal_rtc.c ****   if((hrtc == NULL) || (sAlarm == NULL))
1073:Drivers/STM32F1xx_HAL_Driver/Src/stm32f1xx_hal_rtc.c ****   {
1074:Drivers/STM32F1xx_HAL_Driver/Src/stm32f1xx_hal_rtc.c ****     return HAL_ERROR;
1075:Drivers/STM32F1xx_HAL_Driver/Src/stm32f1xx_hal_rtc.c ****   }
1076:Drivers/STM32F1xx_HAL_Driver/Src/stm32f1xx_hal_rtc.c ****   
1077:Drivers/STM32F1xx_HAL_Driver/Src/stm32f1xx_hal_rtc.c ****   /* Check the parameters */
1078:Drivers/STM32F1xx_HAL_Driver/Src/stm32f1xx_hal_rtc.c ****   assert_param(IS_RTC_FORMAT(Format));
1079:Drivers/STM32F1xx_HAL_Driver/Src/stm32f1xx_hal_rtc.c ****   assert_param(IS_RTC_ALARM(Alarm));
1080:Drivers/STM32F1xx_HAL_Driver/Src/stm32f1xx_hal_rtc.c ****   
1081:Drivers/STM32F1xx_HAL_Driver/Src/stm32f1xx_hal_rtc.c ****   /* Read Alarm counter in RTC registers */
1082:Drivers/STM32F1xx_HAL_Driver/Src/stm32f1xx_hal_rtc.c ****   counter_alarm = RTC_ReadAlarmCounter(hrtc);
1083:Drivers/STM32F1xx_HAL_Driver/Src/stm32f1xx_hal_rtc.c **** 
1084:Drivers/STM32F1xx_HAL_Driver/Src/stm32f1xx_hal_rtc.c ****   /* Fill the structure with the read parameters */
1085:Drivers/STM32F1xx_HAL_Driver/Src/stm32f1xx_hal_rtc.c ****   /* Set hours in a day range (between 0 to 24)*/
1086:Drivers/STM32F1xx_HAL_Driver/Src/stm32f1xx_hal_rtc.c ****   sAlarm->AlarmTime.Hours   = (uint32_t)((counter_alarm / 3600U) % 24U);
1087:Drivers/STM32F1xx_HAL_Driver/Src/stm32f1xx_hal_rtc.c ****   sAlarm->AlarmTime.Minutes = (uint32_t)((counter_alarm % 3600U) / 60U);
1088:Drivers/STM32F1xx_HAL_Driver/Src/stm32f1xx_hal_rtc.c ****   sAlarm->AlarmTime.Seconds = (uint32_t)((counter_alarm % 3600U) % 60U);
1089:Drivers/STM32F1xx_HAL_Driver/Src/stm32f1xx_hal_rtc.c ****   
1090:Drivers/STM32F1xx_HAL_Driver/Src/stm32f1xx_hal_rtc.c ****   if(Format != RTC_FORMAT_BIN)
1091:Drivers/STM32F1xx_HAL_Driver/Src/stm32f1xx_hal_rtc.c ****   {
1092:Drivers/STM32F1xx_HAL_Driver/Src/stm32f1xx_hal_rtc.c ****     sAlarm->AlarmTime.Hours   = RTC_ByteToBcd2(sAlarm->AlarmTime.Hours);
1093:Drivers/STM32F1xx_HAL_Driver/Src/stm32f1xx_hal_rtc.c ****     sAlarm->AlarmTime.Minutes = RTC_ByteToBcd2(sAlarm->AlarmTime.Minutes);
1094:Drivers/STM32F1xx_HAL_Driver/Src/stm32f1xx_hal_rtc.c ****     sAlarm->AlarmTime.Seconds = RTC_ByteToBcd2(sAlarm->AlarmTime.Seconds);
1095:Drivers/STM32F1xx_HAL_Driver/Src/stm32f1xx_hal_rtc.c ****   }  
1096:Drivers/STM32F1xx_HAL_Driver/Src/stm32f1xx_hal_rtc.c ****   
1097:Drivers/STM32F1xx_HAL_Driver/Src/stm32f1xx_hal_rtc.c ****   return HAL_OK;
1098:Drivers/STM32F1xx_HAL_Driver/Src/stm32f1xx_hal_rtc.c **** }
1099:Drivers/STM32F1xx_HAL_Driver/Src/stm32f1xx_hal_rtc.c **** 
1100:Drivers/STM32F1xx_HAL_Driver/Src/stm32f1xx_hal_rtc.c **** /**
1101:Drivers/STM32F1xx_HAL_Driver/Src/stm32f1xx_hal_rtc.c ****   * @brief  Deactive the specified RTC Alarm 
1102:Drivers/STM32F1xx_HAL_Driver/Src/stm32f1xx_hal_rtc.c ****   * @param  hrtc   pointer to a RTC_HandleTypeDef structure that contains
1103:Drivers/STM32F1xx_HAL_Driver/Src/stm32f1xx_hal_rtc.c ****   *                the configuration information for RTC.
1104:Drivers/STM32F1xx_HAL_Driver/Src/stm32f1xx_hal_rtc.c ****   * @param  Alarm: Specifies the Alarm.
1105:Drivers/STM32F1xx_HAL_Driver/Src/stm32f1xx_hal_rtc.c ****   *          This parameter can be one of the following values:
1106:Drivers/STM32F1xx_HAL_Driver/Src/stm32f1xx_hal_rtc.c ****   *            @arg RTC_ALARM_A:  AlarmA
1107:Drivers/STM32F1xx_HAL_Driver/Src/stm32f1xx_hal_rtc.c ****   * @retval HAL status
1108:Drivers/STM32F1xx_HAL_Driver/Src/stm32f1xx_hal_rtc.c ****   */
1109:Drivers/STM32F1xx_HAL_Driver/Src/stm32f1xx_hal_rtc.c **** HAL_StatusTypeDef HAL_RTC_DeactivateAlarm(RTC_HandleTypeDef *hrtc, uint32_t Alarm)
1110:Drivers/STM32F1xx_HAL_Driver/Src/stm32f1xx_hal_rtc.c **** {
1111:Drivers/STM32F1xx_HAL_Driver/Src/stm32f1xx_hal_rtc.c ****   /* Prevent unused argument(s) compilation warning */
1112:Drivers/STM32F1xx_HAL_Driver/Src/stm32f1xx_hal_rtc.c ****   UNUSED(Alarm);
1113:Drivers/STM32F1xx_HAL_Driver/Src/stm32f1xx_hal_rtc.c **** 
1114:Drivers/STM32F1xx_HAL_Driver/Src/stm32f1xx_hal_rtc.c ****   /* Check the parameters */
1115:Drivers/STM32F1xx_HAL_Driver/Src/stm32f1xx_hal_rtc.c ****   assert_param(IS_RTC_ALARM(Alarm));
1116:Drivers/STM32F1xx_HAL_Driver/Src/stm32f1xx_hal_rtc.c ****   
1117:Drivers/STM32F1xx_HAL_Driver/Src/stm32f1xx_hal_rtc.c ****   /* Check input parameters */
ARM GAS  /tmp/cc2ffejw.s 			page 21


1118:Drivers/STM32F1xx_HAL_Driver/Src/stm32f1xx_hal_rtc.c ****   if(hrtc == NULL)
1119:Drivers/STM32F1xx_HAL_Driver/Src/stm32f1xx_hal_rtc.c ****   {
1120:Drivers/STM32F1xx_HAL_Driver/Src/stm32f1xx_hal_rtc.c ****      return HAL_ERROR;
1121:Drivers/STM32F1xx_HAL_Driver/Src/stm32f1xx_hal_rtc.c ****   }
1122:Drivers/STM32F1xx_HAL_Driver/Src/stm32f1xx_hal_rtc.c ****   
1123:Drivers/STM32F1xx_HAL_Driver/Src/stm32f1xx_hal_rtc.c ****   /* Process Locked */ 
1124:Drivers/STM32F1xx_HAL_Driver/Src/stm32f1xx_hal_rtc.c ****   __HAL_LOCK(hrtc);
1125:Drivers/STM32F1xx_HAL_Driver/Src/stm32f1xx_hal_rtc.c ****   
1126:Drivers/STM32F1xx_HAL_Driver/Src/stm32f1xx_hal_rtc.c ****   hrtc->State = HAL_RTC_STATE_BUSY;
1127:Drivers/STM32F1xx_HAL_Driver/Src/stm32f1xx_hal_rtc.c ****   
1128:Drivers/STM32F1xx_HAL_Driver/Src/stm32f1xx_hal_rtc.c ****   /* In case of interrupt mode is used, the interrupt source must disabled */ 
1129:Drivers/STM32F1xx_HAL_Driver/Src/stm32f1xx_hal_rtc.c ****   __HAL_RTC_ALARM_DISABLE_IT(hrtc, RTC_IT_ALRA);
1130:Drivers/STM32F1xx_HAL_Driver/Src/stm32f1xx_hal_rtc.c ****   
1131:Drivers/STM32F1xx_HAL_Driver/Src/stm32f1xx_hal_rtc.c ****   /* Set Initialization mode */
1132:Drivers/STM32F1xx_HAL_Driver/Src/stm32f1xx_hal_rtc.c ****   if(RTC_EnterInitMode(hrtc) != HAL_OK)
1133:Drivers/STM32F1xx_HAL_Driver/Src/stm32f1xx_hal_rtc.c ****   {
1134:Drivers/STM32F1xx_HAL_Driver/Src/stm32f1xx_hal_rtc.c ****     /* Set RTC state */
1135:Drivers/STM32F1xx_HAL_Driver/Src/stm32f1xx_hal_rtc.c ****     hrtc->State = HAL_RTC_STATE_ERROR;
1136:Drivers/STM32F1xx_HAL_Driver/Src/stm32f1xx_hal_rtc.c ****     
1137:Drivers/STM32F1xx_HAL_Driver/Src/stm32f1xx_hal_rtc.c ****     /* Process Unlocked */ 
1138:Drivers/STM32F1xx_HAL_Driver/Src/stm32f1xx_hal_rtc.c ****     __HAL_UNLOCK(hrtc);
1139:Drivers/STM32F1xx_HAL_Driver/Src/stm32f1xx_hal_rtc.c ****     
1140:Drivers/STM32F1xx_HAL_Driver/Src/stm32f1xx_hal_rtc.c ****     return HAL_ERROR;
1141:Drivers/STM32F1xx_HAL_Driver/Src/stm32f1xx_hal_rtc.c ****   } 
1142:Drivers/STM32F1xx_HAL_Driver/Src/stm32f1xx_hal_rtc.c ****   else
1143:Drivers/STM32F1xx_HAL_Driver/Src/stm32f1xx_hal_rtc.c ****   {
1144:Drivers/STM32F1xx_HAL_Driver/Src/stm32f1xx_hal_rtc.c ****     /* Clear flag alarm A */
1145:Drivers/STM32F1xx_HAL_Driver/Src/stm32f1xx_hal_rtc.c ****     __HAL_RTC_ALARM_CLEAR_FLAG(hrtc, RTC_FLAG_ALRAF);
1146:Drivers/STM32F1xx_HAL_Driver/Src/stm32f1xx_hal_rtc.c ****     
1147:Drivers/STM32F1xx_HAL_Driver/Src/stm32f1xx_hal_rtc.c ****     /* Set to default values ALRH & ALRL registers */
1148:Drivers/STM32F1xx_HAL_Driver/Src/stm32f1xx_hal_rtc.c ****     WRITE_REG(hrtc->Instance->ALRH, RTC_ALARM_RESETVALUE_REGISTER);
1149:Drivers/STM32F1xx_HAL_Driver/Src/stm32f1xx_hal_rtc.c ****     WRITE_REG(hrtc->Instance->ALRL, RTC_ALARM_RESETVALUE_REGISTER);
1150:Drivers/STM32F1xx_HAL_Driver/Src/stm32f1xx_hal_rtc.c **** 
1151:Drivers/STM32F1xx_HAL_Driver/Src/stm32f1xx_hal_rtc.c ****     /* RTC Alarm Interrupt Configuration: Disable EXTI configuration */
1152:Drivers/STM32F1xx_HAL_Driver/Src/stm32f1xx_hal_rtc.c ****     __HAL_RTC_ALARM_EXTI_DISABLE_IT();
1153:Drivers/STM32F1xx_HAL_Driver/Src/stm32f1xx_hal_rtc.c ****     
1154:Drivers/STM32F1xx_HAL_Driver/Src/stm32f1xx_hal_rtc.c ****     /* Wait for synchro */
1155:Drivers/STM32F1xx_HAL_Driver/Src/stm32f1xx_hal_rtc.c ****     if(RTC_ExitInitMode(hrtc) != HAL_OK)
1156:Drivers/STM32F1xx_HAL_Driver/Src/stm32f1xx_hal_rtc.c ****     {       
1157:Drivers/STM32F1xx_HAL_Driver/Src/stm32f1xx_hal_rtc.c ****       hrtc->State = HAL_RTC_STATE_ERROR;
1158:Drivers/STM32F1xx_HAL_Driver/Src/stm32f1xx_hal_rtc.c ****       
1159:Drivers/STM32F1xx_HAL_Driver/Src/stm32f1xx_hal_rtc.c ****       /* Process Unlocked */ 
1160:Drivers/STM32F1xx_HAL_Driver/Src/stm32f1xx_hal_rtc.c ****       __HAL_UNLOCK(hrtc);
1161:Drivers/STM32F1xx_HAL_Driver/Src/stm32f1xx_hal_rtc.c ****       
1162:Drivers/STM32F1xx_HAL_Driver/Src/stm32f1xx_hal_rtc.c ****       return HAL_ERROR;
1163:Drivers/STM32F1xx_HAL_Driver/Src/stm32f1xx_hal_rtc.c ****     }
1164:Drivers/STM32F1xx_HAL_Driver/Src/stm32f1xx_hal_rtc.c ****   }
1165:Drivers/STM32F1xx_HAL_Driver/Src/stm32f1xx_hal_rtc.c ****   hrtc->State = HAL_RTC_STATE_READY; 
1166:Drivers/STM32F1xx_HAL_Driver/Src/stm32f1xx_hal_rtc.c ****   
1167:Drivers/STM32F1xx_HAL_Driver/Src/stm32f1xx_hal_rtc.c ****   /* Process Unlocked */ 
1168:Drivers/STM32F1xx_HAL_Driver/Src/stm32f1xx_hal_rtc.c ****   __HAL_UNLOCK(hrtc);  
1169:Drivers/STM32F1xx_HAL_Driver/Src/stm32f1xx_hal_rtc.c ****   
1170:Drivers/STM32F1xx_HAL_Driver/Src/stm32f1xx_hal_rtc.c ****   return HAL_OK; 
1171:Drivers/STM32F1xx_HAL_Driver/Src/stm32f1xx_hal_rtc.c **** }
1172:Drivers/STM32F1xx_HAL_Driver/Src/stm32f1xx_hal_rtc.c **** 
1173:Drivers/STM32F1xx_HAL_Driver/Src/stm32f1xx_hal_rtc.c **** /**
1174:Drivers/STM32F1xx_HAL_Driver/Src/stm32f1xx_hal_rtc.c ****   * @brief  This function handles Alarm interrupt request.
ARM GAS  /tmp/cc2ffejw.s 			page 22


1175:Drivers/STM32F1xx_HAL_Driver/Src/stm32f1xx_hal_rtc.c ****   * @param  hrtc   pointer to a RTC_HandleTypeDef structure that contains
1176:Drivers/STM32F1xx_HAL_Driver/Src/stm32f1xx_hal_rtc.c ****   *                the configuration information for RTC.
1177:Drivers/STM32F1xx_HAL_Driver/Src/stm32f1xx_hal_rtc.c ****   * @retval None
1178:Drivers/STM32F1xx_HAL_Driver/Src/stm32f1xx_hal_rtc.c ****   */
1179:Drivers/STM32F1xx_HAL_Driver/Src/stm32f1xx_hal_rtc.c **** void HAL_RTC_AlarmIRQHandler(RTC_HandleTypeDef* hrtc)
1180:Drivers/STM32F1xx_HAL_Driver/Src/stm32f1xx_hal_rtc.c **** {  
1181:Drivers/STM32F1xx_HAL_Driver/Src/stm32f1xx_hal_rtc.c ****   if(__HAL_RTC_ALARM_GET_IT_SOURCE(hrtc, RTC_IT_ALRA))
1182:Drivers/STM32F1xx_HAL_Driver/Src/stm32f1xx_hal_rtc.c ****   {
1183:Drivers/STM32F1xx_HAL_Driver/Src/stm32f1xx_hal_rtc.c ****     /* Get the status of the Interrupt */
1184:Drivers/STM32F1xx_HAL_Driver/Src/stm32f1xx_hal_rtc.c ****     if(__HAL_RTC_ALARM_GET_FLAG(hrtc, RTC_FLAG_ALRAF) != (uint32_t)RESET)
1185:Drivers/STM32F1xx_HAL_Driver/Src/stm32f1xx_hal_rtc.c ****     {
1186:Drivers/STM32F1xx_HAL_Driver/Src/stm32f1xx_hal_rtc.c ****       /* AlarmA callback */ 
1187:Drivers/STM32F1xx_HAL_Driver/Src/stm32f1xx_hal_rtc.c ****       HAL_RTC_AlarmAEventCallback(hrtc);
1188:Drivers/STM32F1xx_HAL_Driver/Src/stm32f1xx_hal_rtc.c ****       
1189:Drivers/STM32F1xx_HAL_Driver/Src/stm32f1xx_hal_rtc.c ****       /* Clear the Alarm interrupt pending bit */
1190:Drivers/STM32F1xx_HAL_Driver/Src/stm32f1xx_hal_rtc.c ****       __HAL_RTC_ALARM_CLEAR_FLAG(hrtc,RTC_FLAG_ALRAF);
1191:Drivers/STM32F1xx_HAL_Driver/Src/stm32f1xx_hal_rtc.c ****     }
1192:Drivers/STM32F1xx_HAL_Driver/Src/stm32f1xx_hal_rtc.c ****   }
1193:Drivers/STM32F1xx_HAL_Driver/Src/stm32f1xx_hal_rtc.c ****   
1194:Drivers/STM32F1xx_HAL_Driver/Src/stm32f1xx_hal_rtc.c ****   /* Clear the EXTI's line Flag for RTC Alarm */
1195:Drivers/STM32F1xx_HAL_Driver/Src/stm32f1xx_hal_rtc.c ****   __HAL_RTC_ALARM_EXTI_CLEAR_FLAG();
1196:Drivers/STM32F1xx_HAL_Driver/Src/stm32f1xx_hal_rtc.c ****   
1197:Drivers/STM32F1xx_HAL_Driver/Src/stm32f1xx_hal_rtc.c ****   /* Change RTC state */
1198:Drivers/STM32F1xx_HAL_Driver/Src/stm32f1xx_hal_rtc.c ****   hrtc->State = HAL_RTC_STATE_READY; 
1199:Drivers/STM32F1xx_HAL_Driver/Src/stm32f1xx_hal_rtc.c **** }
1200:Drivers/STM32F1xx_HAL_Driver/Src/stm32f1xx_hal_rtc.c **** 
1201:Drivers/STM32F1xx_HAL_Driver/Src/stm32f1xx_hal_rtc.c **** /**
1202:Drivers/STM32F1xx_HAL_Driver/Src/stm32f1xx_hal_rtc.c ****   * @brief  Alarm A callback.
1203:Drivers/STM32F1xx_HAL_Driver/Src/stm32f1xx_hal_rtc.c ****   * @param  hrtc   pointer to a RTC_HandleTypeDef structure that contains
1204:Drivers/STM32F1xx_HAL_Driver/Src/stm32f1xx_hal_rtc.c ****   *                the configuration information for RTC.
1205:Drivers/STM32F1xx_HAL_Driver/Src/stm32f1xx_hal_rtc.c ****   * @retval None
1206:Drivers/STM32F1xx_HAL_Driver/Src/stm32f1xx_hal_rtc.c ****   */
1207:Drivers/STM32F1xx_HAL_Driver/Src/stm32f1xx_hal_rtc.c **** __weak void HAL_RTC_AlarmAEventCallback(RTC_HandleTypeDef *hrtc)
1208:Drivers/STM32F1xx_HAL_Driver/Src/stm32f1xx_hal_rtc.c **** {
1209:Drivers/STM32F1xx_HAL_Driver/Src/stm32f1xx_hal_rtc.c ****   /* Prevent unused argument(s) compilation warning */
1210:Drivers/STM32F1xx_HAL_Driver/Src/stm32f1xx_hal_rtc.c ****   UNUSED(hrtc);
1211:Drivers/STM32F1xx_HAL_Driver/Src/stm32f1xx_hal_rtc.c ****   /* NOTE : This function Should not be modified, when the callback is needed,
1212:Drivers/STM32F1xx_HAL_Driver/Src/stm32f1xx_hal_rtc.c ****             the HAL_RTC_AlarmAEventCallback could be implemented in the user file
1213:Drivers/STM32F1xx_HAL_Driver/Src/stm32f1xx_hal_rtc.c ****    */
1214:Drivers/STM32F1xx_HAL_Driver/Src/stm32f1xx_hal_rtc.c **** }
1215:Drivers/STM32F1xx_HAL_Driver/Src/stm32f1xx_hal_rtc.c **** 
1216:Drivers/STM32F1xx_HAL_Driver/Src/stm32f1xx_hal_rtc.c **** /**
1217:Drivers/STM32F1xx_HAL_Driver/Src/stm32f1xx_hal_rtc.c ****   * @brief  This function handles AlarmA Polling request.
1218:Drivers/STM32F1xx_HAL_Driver/Src/stm32f1xx_hal_rtc.c ****   * @param  hrtc   pointer to a RTC_HandleTypeDef structure that contains
1219:Drivers/STM32F1xx_HAL_Driver/Src/stm32f1xx_hal_rtc.c ****   *                the configuration information for RTC.
1220:Drivers/STM32F1xx_HAL_Driver/Src/stm32f1xx_hal_rtc.c ****   * @param  Timeout: Timeout duration
1221:Drivers/STM32F1xx_HAL_Driver/Src/stm32f1xx_hal_rtc.c ****   * @retval HAL status
1222:Drivers/STM32F1xx_HAL_Driver/Src/stm32f1xx_hal_rtc.c ****   */
1223:Drivers/STM32F1xx_HAL_Driver/Src/stm32f1xx_hal_rtc.c **** HAL_StatusTypeDef HAL_RTC_PollForAlarmAEvent(RTC_HandleTypeDef *hrtc, uint32_t Timeout)
1224:Drivers/STM32F1xx_HAL_Driver/Src/stm32f1xx_hal_rtc.c **** {  
1225:Drivers/STM32F1xx_HAL_Driver/Src/stm32f1xx_hal_rtc.c ****   uint32_t tickstart = HAL_GetTick();   
1226:Drivers/STM32F1xx_HAL_Driver/Src/stm32f1xx_hal_rtc.c ****   
1227:Drivers/STM32F1xx_HAL_Driver/Src/stm32f1xx_hal_rtc.c ****   /* Check input parameters */
1228:Drivers/STM32F1xx_HAL_Driver/Src/stm32f1xx_hal_rtc.c ****   if(hrtc == NULL)
1229:Drivers/STM32F1xx_HAL_Driver/Src/stm32f1xx_hal_rtc.c ****   {
1230:Drivers/STM32F1xx_HAL_Driver/Src/stm32f1xx_hal_rtc.c ****      return HAL_ERROR;
1231:Drivers/STM32F1xx_HAL_Driver/Src/stm32f1xx_hal_rtc.c ****   }
ARM GAS  /tmp/cc2ffejw.s 			page 23


1232:Drivers/STM32F1xx_HAL_Driver/Src/stm32f1xx_hal_rtc.c ****   
1233:Drivers/STM32F1xx_HAL_Driver/Src/stm32f1xx_hal_rtc.c ****   while(__HAL_RTC_ALARM_GET_FLAG(hrtc, RTC_FLAG_ALRAF) == RESET)
1234:Drivers/STM32F1xx_HAL_Driver/Src/stm32f1xx_hal_rtc.c ****   {
1235:Drivers/STM32F1xx_HAL_Driver/Src/stm32f1xx_hal_rtc.c ****     if(Timeout != HAL_MAX_DELAY)
1236:Drivers/STM32F1xx_HAL_Driver/Src/stm32f1xx_hal_rtc.c ****     {
1237:Drivers/STM32F1xx_HAL_Driver/Src/stm32f1xx_hal_rtc.c ****       if((Timeout == 0)||((HAL_GetTick() - tickstart ) > Timeout))
1238:Drivers/STM32F1xx_HAL_Driver/Src/stm32f1xx_hal_rtc.c ****       {
1239:Drivers/STM32F1xx_HAL_Driver/Src/stm32f1xx_hal_rtc.c ****         hrtc->State = HAL_RTC_STATE_TIMEOUT;
1240:Drivers/STM32F1xx_HAL_Driver/Src/stm32f1xx_hal_rtc.c ****         return HAL_TIMEOUT;
1241:Drivers/STM32F1xx_HAL_Driver/Src/stm32f1xx_hal_rtc.c ****       }
1242:Drivers/STM32F1xx_HAL_Driver/Src/stm32f1xx_hal_rtc.c ****     }
1243:Drivers/STM32F1xx_HAL_Driver/Src/stm32f1xx_hal_rtc.c ****   }
1244:Drivers/STM32F1xx_HAL_Driver/Src/stm32f1xx_hal_rtc.c ****   
1245:Drivers/STM32F1xx_HAL_Driver/Src/stm32f1xx_hal_rtc.c ****   /* Clear the Alarm interrupt pending bit */
1246:Drivers/STM32F1xx_HAL_Driver/Src/stm32f1xx_hal_rtc.c ****   __HAL_RTC_ALARM_CLEAR_FLAG(hrtc, RTC_FLAG_ALRAF);
1247:Drivers/STM32F1xx_HAL_Driver/Src/stm32f1xx_hal_rtc.c ****   
1248:Drivers/STM32F1xx_HAL_Driver/Src/stm32f1xx_hal_rtc.c ****   /* Change RTC state */
1249:Drivers/STM32F1xx_HAL_Driver/Src/stm32f1xx_hal_rtc.c ****   hrtc->State = HAL_RTC_STATE_READY; 
1250:Drivers/STM32F1xx_HAL_Driver/Src/stm32f1xx_hal_rtc.c ****   
1251:Drivers/STM32F1xx_HAL_Driver/Src/stm32f1xx_hal_rtc.c ****   return HAL_OK;  
1252:Drivers/STM32F1xx_HAL_Driver/Src/stm32f1xx_hal_rtc.c **** }
1253:Drivers/STM32F1xx_HAL_Driver/Src/stm32f1xx_hal_rtc.c **** 
1254:Drivers/STM32F1xx_HAL_Driver/Src/stm32f1xx_hal_rtc.c **** /**
1255:Drivers/STM32F1xx_HAL_Driver/Src/stm32f1xx_hal_rtc.c ****   * @}
1256:Drivers/STM32F1xx_HAL_Driver/Src/stm32f1xx_hal_rtc.c ****   */
1257:Drivers/STM32F1xx_HAL_Driver/Src/stm32f1xx_hal_rtc.c **** 
1258:Drivers/STM32F1xx_HAL_Driver/Src/stm32f1xx_hal_rtc.c **** /** @defgroup RTC_Exported_Functions_Group4 Peripheral State functions 
1259:Drivers/STM32F1xx_HAL_Driver/Src/stm32f1xx_hal_rtc.c ****  *  @brief   Peripheral State functions 
1260:Drivers/STM32F1xx_HAL_Driver/Src/stm32f1xx_hal_rtc.c ****  *
1261:Drivers/STM32F1xx_HAL_Driver/Src/stm32f1xx_hal_rtc.c **** @verbatim   
1262:Drivers/STM32F1xx_HAL_Driver/Src/stm32f1xx_hal_rtc.c ****  ===============================================================================
1263:Drivers/STM32F1xx_HAL_Driver/Src/stm32f1xx_hal_rtc.c ****                      ##### Peripheral State functions #####
1264:Drivers/STM32F1xx_HAL_Driver/Src/stm32f1xx_hal_rtc.c ****  ===============================================================================  
1265:Drivers/STM32F1xx_HAL_Driver/Src/stm32f1xx_hal_rtc.c ****     [..]
1266:Drivers/STM32F1xx_HAL_Driver/Src/stm32f1xx_hal_rtc.c ****     This subsection provides functions allowing to
1267:Drivers/STM32F1xx_HAL_Driver/Src/stm32f1xx_hal_rtc.c ****       (+) Get RTC state
1268:Drivers/STM32F1xx_HAL_Driver/Src/stm32f1xx_hal_rtc.c **** 
1269:Drivers/STM32F1xx_HAL_Driver/Src/stm32f1xx_hal_rtc.c **** @endverbatim
1270:Drivers/STM32F1xx_HAL_Driver/Src/stm32f1xx_hal_rtc.c ****   * @{
1271:Drivers/STM32F1xx_HAL_Driver/Src/stm32f1xx_hal_rtc.c ****   */
1272:Drivers/STM32F1xx_HAL_Driver/Src/stm32f1xx_hal_rtc.c **** /**
1273:Drivers/STM32F1xx_HAL_Driver/Src/stm32f1xx_hal_rtc.c ****   * @brief  Returns the RTC state.
1274:Drivers/STM32F1xx_HAL_Driver/Src/stm32f1xx_hal_rtc.c ****   * @param  hrtc   pointer to a RTC_HandleTypeDef structure that contains
1275:Drivers/STM32F1xx_HAL_Driver/Src/stm32f1xx_hal_rtc.c ****   *                the configuration information for RTC.
1276:Drivers/STM32F1xx_HAL_Driver/Src/stm32f1xx_hal_rtc.c ****   * @retval HAL state
1277:Drivers/STM32F1xx_HAL_Driver/Src/stm32f1xx_hal_rtc.c ****   */
1278:Drivers/STM32F1xx_HAL_Driver/Src/stm32f1xx_hal_rtc.c **** HAL_RTCStateTypeDef HAL_RTC_GetState(RTC_HandleTypeDef* hrtc)
1279:Drivers/STM32F1xx_HAL_Driver/Src/stm32f1xx_hal_rtc.c **** {
1280:Drivers/STM32F1xx_HAL_Driver/Src/stm32f1xx_hal_rtc.c ****   return hrtc->State;
1281:Drivers/STM32F1xx_HAL_Driver/Src/stm32f1xx_hal_rtc.c **** }
1282:Drivers/STM32F1xx_HAL_Driver/Src/stm32f1xx_hal_rtc.c **** 
1283:Drivers/STM32F1xx_HAL_Driver/Src/stm32f1xx_hal_rtc.c **** /**
1284:Drivers/STM32F1xx_HAL_Driver/Src/stm32f1xx_hal_rtc.c ****   * @}
1285:Drivers/STM32F1xx_HAL_Driver/Src/stm32f1xx_hal_rtc.c ****   */
1286:Drivers/STM32F1xx_HAL_Driver/Src/stm32f1xx_hal_rtc.c **** 
1287:Drivers/STM32F1xx_HAL_Driver/Src/stm32f1xx_hal_rtc.c **** /** @defgroup RTC_Exported_Functions_Group5 Peripheral Control functions 
1288:Drivers/STM32F1xx_HAL_Driver/Src/stm32f1xx_hal_rtc.c ****  *  @brief   Peripheral Control functions 
ARM GAS  /tmp/cc2ffejw.s 			page 24


1289:Drivers/STM32F1xx_HAL_Driver/Src/stm32f1xx_hal_rtc.c ****  *
1290:Drivers/STM32F1xx_HAL_Driver/Src/stm32f1xx_hal_rtc.c **** @verbatim   
1291:Drivers/STM32F1xx_HAL_Driver/Src/stm32f1xx_hal_rtc.c ****  ===============================================================================
1292:Drivers/STM32F1xx_HAL_Driver/Src/stm32f1xx_hal_rtc.c ****                      ##### Peripheral Control functions #####
1293:Drivers/STM32F1xx_HAL_Driver/Src/stm32f1xx_hal_rtc.c ****  ===============================================================================  
1294:Drivers/STM32F1xx_HAL_Driver/Src/stm32f1xx_hal_rtc.c ****     [..]
1295:Drivers/STM32F1xx_HAL_Driver/Src/stm32f1xx_hal_rtc.c ****     This subsection provides functions allowing to
1296:Drivers/STM32F1xx_HAL_Driver/Src/stm32f1xx_hal_rtc.c ****       (+) Wait for RTC Time and Date Synchronization
1297:Drivers/STM32F1xx_HAL_Driver/Src/stm32f1xx_hal_rtc.c **** 
1298:Drivers/STM32F1xx_HAL_Driver/Src/stm32f1xx_hal_rtc.c **** @endverbatim
1299:Drivers/STM32F1xx_HAL_Driver/Src/stm32f1xx_hal_rtc.c ****   * @{
1300:Drivers/STM32F1xx_HAL_Driver/Src/stm32f1xx_hal_rtc.c ****   */
1301:Drivers/STM32F1xx_HAL_Driver/Src/stm32f1xx_hal_rtc.c **** 
1302:Drivers/STM32F1xx_HAL_Driver/Src/stm32f1xx_hal_rtc.c **** /**
1303:Drivers/STM32F1xx_HAL_Driver/Src/stm32f1xx_hal_rtc.c ****   * @brief  Waits until the RTC registers (RTC_CNT, RTC_ALR and RTC_PRL)
1304:Drivers/STM32F1xx_HAL_Driver/Src/stm32f1xx_hal_rtc.c ****   *   are synchronized with RTC APB clock.
1305:Drivers/STM32F1xx_HAL_Driver/Src/stm32f1xx_hal_rtc.c ****   * @note   This function must be called before any read operation after an APB reset
1306:Drivers/STM32F1xx_HAL_Driver/Src/stm32f1xx_hal_rtc.c ****   *   or an APB clock stop.
1307:Drivers/STM32F1xx_HAL_Driver/Src/stm32f1xx_hal_rtc.c ****   * @param  hrtc   pointer to a RTC_HandleTypeDef structure that contains
1308:Drivers/STM32F1xx_HAL_Driver/Src/stm32f1xx_hal_rtc.c ****   *                the configuration information for RTC.
1309:Drivers/STM32F1xx_HAL_Driver/Src/stm32f1xx_hal_rtc.c ****   * @retval HAL status
1310:Drivers/STM32F1xx_HAL_Driver/Src/stm32f1xx_hal_rtc.c ****   */
1311:Drivers/STM32F1xx_HAL_Driver/Src/stm32f1xx_hal_rtc.c **** HAL_StatusTypeDef HAL_RTC_WaitForSynchro(RTC_HandleTypeDef* hrtc)
1312:Drivers/STM32F1xx_HAL_Driver/Src/stm32f1xx_hal_rtc.c **** {
1313:Drivers/STM32F1xx_HAL_Driver/Src/stm32f1xx_hal_rtc.c ****   uint32_t tickstart = 0U;
1314:Drivers/STM32F1xx_HAL_Driver/Src/stm32f1xx_hal_rtc.c ****   
1315:Drivers/STM32F1xx_HAL_Driver/Src/stm32f1xx_hal_rtc.c ****   /* Check input parameters */
1316:Drivers/STM32F1xx_HAL_Driver/Src/stm32f1xx_hal_rtc.c ****   if(hrtc == NULL)
1317:Drivers/STM32F1xx_HAL_Driver/Src/stm32f1xx_hal_rtc.c ****   {
1318:Drivers/STM32F1xx_HAL_Driver/Src/stm32f1xx_hal_rtc.c ****      return HAL_ERROR;
1319:Drivers/STM32F1xx_HAL_Driver/Src/stm32f1xx_hal_rtc.c ****   }
1320:Drivers/STM32F1xx_HAL_Driver/Src/stm32f1xx_hal_rtc.c ****   
1321:Drivers/STM32F1xx_HAL_Driver/Src/stm32f1xx_hal_rtc.c ****   /* Clear RSF flag */
1322:Drivers/STM32F1xx_HAL_Driver/Src/stm32f1xx_hal_rtc.c ****   CLEAR_BIT(hrtc->Instance->CRL, RTC_FLAG_RSF);
1323:Drivers/STM32F1xx_HAL_Driver/Src/stm32f1xx_hal_rtc.c ****   
1324:Drivers/STM32F1xx_HAL_Driver/Src/stm32f1xx_hal_rtc.c ****   tickstart = HAL_GetTick();
1325:Drivers/STM32F1xx_HAL_Driver/Src/stm32f1xx_hal_rtc.c ****   
1326:Drivers/STM32F1xx_HAL_Driver/Src/stm32f1xx_hal_rtc.c ****   /* Wait the registers to be synchronised */
1327:Drivers/STM32F1xx_HAL_Driver/Src/stm32f1xx_hal_rtc.c ****   while((hrtc->Instance->CRL & RTC_FLAG_RSF) == (uint32_t)RESET)
1328:Drivers/STM32F1xx_HAL_Driver/Src/stm32f1xx_hal_rtc.c ****   {
1329:Drivers/STM32F1xx_HAL_Driver/Src/stm32f1xx_hal_rtc.c ****     if((HAL_GetTick() - tickstart ) >  RTC_TIMEOUT_VALUE)
1330:Drivers/STM32F1xx_HAL_Driver/Src/stm32f1xx_hal_rtc.c ****     {       
1331:Drivers/STM32F1xx_HAL_Driver/Src/stm32f1xx_hal_rtc.c ****       return HAL_TIMEOUT;
1332:Drivers/STM32F1xx_HAL_Driver/Src/stm32f1xx_hal_rtc.c ****     } 
1333:Drivers/STM32F1xx_HAL_Driver/Src/stm32f1xx_hal_rtc.c ****   }
1334:Drivers/STM32F1xx_HAL_Driver/Src/stm32f1xx_hal_rtc.c ****   
1335:Drivers/STM32F1xx_HAL_Driver/Src/stm32f1xx_hal_rtc.c ****   return HAL_OK;
1336:Drivers/STM32F1xx_HAL_Driver/Src/stm32f1xx_hal_rtc.c **** }
1337:Drivers/STM32F1xx_HAL_Driver/Src/stm32f1xx_hal_rtc.c **** 
1338:Drivers/STM32F1xx_HAL_Driver/Src/stm32f1xx_hal_rtc.c **** /**
1339:Drivers/STM32F1xx_HAL_Driver/Src/stm32f1xx_hal_rtc.c ****   * @}
1340:Drivers/STM32F1xx_HAL_Driver/Src/stm32f1xx_hal_rtc.c ****   */
1341:Drivers/STM32F1xx_HAL_Driver/Src/stm32f1xx_hal_rtc.c **** 
1342:Drivers/STM32F1xx_HAL_Driver/Src/stm32f1xx_hal_rtc.c **** 
1343:Drivers/STM32F1xx_HAL_Driver/Src/stm32f1xx_hal_rtc.c **** /**
1344:Drivers/STM32F1xx_HAL_Driver/Src/stm32f1xx_hal_rtc.c ****   * @}
1345:Drivers/STM32F1xx_HAL_Driver/Src/stm32f1xx_hal_rtc.c ****   */
ARM GAS  /tmp/cc2ffejw.s 			page 25


1346:Drivers/STM32F1xx_HAL_Driver/Src/stm32f1xx_hal_rtc.c **** 
1347:Drivers/STM32F1xx_HAL_Driver/Src/stm32f1xx_hal_rtc.c **** /** @addtogroup RTC_Private_Functions
1348:Drivers/STM32F1xx_HAL_Driver/Src/stm32f1xx_hal_rtc.c ****   * @{
1349:Drivers/STM32F1xx_HAL_Driver/Src/stm32f1xx_hal_rtc.c ****   */
1350:Drivers/STM32F1xx_HAL_Driver/Src/stm32f1xx_hal_rtc.c ****   
1351:Drivers/STM32F1xx_HAL_Driver/Src/stm32f1xx_hal_rtc.c **** 
1352:Drivers/STM32F1xx_HAL_Driver/Src/stm32f1xx_hal_rtc.c **** /**
1353:Drivers/STM32F1xx_HAL_Driver/Src/stm32f1xx_hal_rtc.c ****   * @brief  Read the time counter available in RTC_CNT registers.
1354:Drivers/STM32F1xx_HAL_Driver/Src/stm32f1xx_hal_rtc.c ****   * @param  hrtc   pointer to a RTC_HandleTypeDef structure that contains
1355:Drivers/STM32F1xx_HAL_Driver/Src/stm32f1xx_hal_rtc.c ****   *                the configuration information for RTC.
1356:Drivers/STM32F1xx_HAL_Driver/Src/stm32f1xx_hal_rtc.c ****   * @retval Time counter
1357:Drivers/STM32F1xx_HAL_Driver/Src/stm32f1xx_hal_rtc.c ****   */
1358:Drivers/STM32F1xx_HAL_Driver/Src/stm32f1xx_hal_rtc.c **** uint32_t RTC_ReadTimeCounter(RTC_HandleTypeDef* hrtc)
1359:Drivers/STM32F1xx_HAL_Driver/Src/stm32f1xx_hal_rtc.c **** {
1360:Drivers/STM32F1xx_HAL_Driver/Src/stm32f1xx_hal_rtc.c ****   uint16_t high1 = 0U, high2 = 0U, low = 0U;
1361:Drivers/STM32F1xx_HAL_Driver/Src/stm32f1xx_hal_rtc.c ****   uint32_t timecounter = 0U;
1362:Drivers/STM32F1xx_HAL_Driver/Src/stm32f1xx_hal_rtc.c **** 
1363:Drivers/STM32F1xx_HAL_Driver/Src/stm32f1xx_hal_rtc.c ****   high1 = READ_REG(hrtc->Instance->CNTH & RTC_CNTH_RTC_CNT);
1364:Drivers/STM32F1xx_HAL_Driver/Src/stm32f1xx_hal_rtc.c ****   low   = READ_REG(hrtc->Instance->CNTL & RTC_CNTL_RTC_CNT);
1365:Drivers/STM32F1xx_HAL_Driver/Src/stm32f1xx_hal_rtc.c ****   high2 = READ_REG(hrtc->Instance->CNTH & RTC_CNTH_RTC_CNT);
1366:Drivers/STM32F1xx_HAL_Driver/Src/stm32f1xx_hal_rtc.c **** 
1367:Drivers/STM32F1xx_HAL_Driver/Src/stm32f1xx_hal_rtc.c ****   if (high1 != high2)
1368:Drivers/STM32F1xx_HAL_Driver/Src/stm32f1xx_hal_rtc.c ****   { /* In this case the counter roll over during reading of CNTL and CNTH registers, 
1369:Drivers/STM32F1xx_HAL_Driver/Src/stm32f1xx_hal_rtc.c ****        read again CNTL register then return the counter value */
1370:Drivers/STM32F1xx_HAL_Driver/Src/stm32f1xx_hal_rtc.c ****     timecounter = (((uint32_t) high2 << 16U) | READ_REG(hrtc->Instance->CNTL & RTC_CNTL_RTC_CNT));
1371:Drivers/STM32F1xx_HAL_Driver/Src/stm32f1xx_hal_rtc.c ****   }
1372:Drivers/STM32F1xx_HAL_Driver/Src/stm32f1xx_hal_rtc.c ****   else
1373:Drivers/STM32F1xx_HAL_Driver/Src/stm32f1xx_hal_rtc.c ****   { /* No counter roll over during reading of CNTL and CNTH registers, counter 
1374:Drivers/STM32F1xx_HAL_Driver/Src/stm32f1xx_hal_rtc.c ****        value is equal to first value of CNTL and CNTH */
1375:Drivers/STM32F1xx_HAL_Driver/Src/stm32f1xx_hal_rtc.c ****     timecounter = (((uint32_t) high1 << 16U) | low);
1376:Drivers/STM32F1xx_HAL_Driver/Src/stm32f1xx_hal_rtc.c ****   }
1377:Drivers/STM32F1xx_HAL_Driver/Src/stm32f1xx_hal_rtc.c **** 
1378:Drivers/STM32F1xx_HAL_Driver/Src/stm32f1xx_hal_rtc.c ****   return timecounter;
1379:Drivers/STM32F1xx_HAL_Driver/Src/stm32f1xx_hal_rtc.c **** }
1380:Drivers/STM32F1xx_HAL_Driver/Src/stm32f1xx_hal_rtc.c **** 
1381:Drivers/STM32F1xx_HAL_Driver/Src/stm32f1xx_hal_rtc.c **** /**
1382:Drivers/STM32F1xx_HAL_Driver/Src/stm32f1xx_hal_rtc.c ****   * @brief  Write the time counter in RTC_CNT registers.
1383:Drivers/STM32F1xx_HAL_Driver/Src/stm32f1xx_hal_rtc.c ****   * @param  hrtc   pointer to a RTC_HandleTypeDef structure that contains
1384:Drivers/STM32F1xx_HAL_Driver/Src/stm32f1xx_hal_rtc.c ****   *                the configuration information for RTC.
1385:Drivers/STM32F1xx_HAL_Driver/Src/stm32f1xx_hal_rtc.c ****   * @param  TimeCounter: Counter to write in RTC_CNT registers
1386:Drivers/STM32F1xx_HAL_Driver/Src/stm32f1xx_hal_rtc.c ****   * @retval HAL status
1387:Drivers/STM32F1xx_HAL_Driver/Src/stm32f1xx_hal_rtc.c ****   */
1388:Drivers/STM32F1xx_HAL_Driver/Src/stm32f1xx_hal_rtc.c **** static HAL_StatusTypeDef RTC_WriteTimeCounter(RTC_HandleTypeDef* hrtc, uint32_t TimeCounter)
1389:Drivers/STM32F1xx_HAL_Driver/Src/stm32f1xx_hal_rtc.c **** {
1390:Drivers/STM32F1xx_HAL_Driver/Src/stm32f1xx_hal_rtc.c ****   HAL_StatusTypeDef status = HAL_OK;
1391:Drivers/STM32F1xx_HAL_Driver/Src/stm32f1xx_hal_rtc.c ****   
1392:Drivers/STM32F1xx_HAL_Driver/Src/stm32f1xx_hal_rtc.c ****   /* Set Initialization mode */
1393:Drivers/STM32F1xx_HAL_Driver/Src/stm32f1xx_hal_rtc.c ****   if(RTC_EnterInitMode(hrtc) != HAL_OK)
1394:Drivers/STM32F1xx_HAL_Driver/Src/stm32f1xx_hal_rtc.c ****   {
1395:Drivers/STM32F1xx_HAL_Driver/Src/stm32f1xx_hal_rtc.c ****     status = HAL_ERROR;
1396:Drivers/STM32F1xx_HAL_Driver/Src/stm32f1xx_hal_rtc.c ****   } 
1397:Drivers/STM32F1xx_HAL_Driver/Src/stm32f1xx_hal_rtc.c ****   else
1398:Drivers/STM32F1xx_HAL_Driver/Src/stm32f1xx_hal_rtc.c ****   {
1399:Drivers/STM32F1xx_HAL_Driver/Src/stm32f1xx_hal_rtc.c ****     /* Set RTC COUNTER MSB word */
1400:Drivers/STM32F1xx_HAL_Driver/Src/stm32f1xx_hal_rtc.c ****     WRITE_REG(hrtc->Instance->CNTH, (TimeCounter >> 16U));
1401:Drivers/STM32F1xx_HAL_Driver/Src/stm32f1xx_hal_rtc.c ****     /* Set RTC COUNTER LSB word */
1402:Drivers/STM32F1xx_HAL_Driver/Src/stm32f1xx_hal_rtc.c ****     WRITE_REG(hrtc->Instance->CNTL, (TimeCounter & RTC_CNTL_RTC_CNT));
ARM GAS  /tmp/cc2ffejw.s 			page 26


1403:Drivers/STM32F1xx_HAL_Driver/Src/stm32f1xx_hal_rtc.c ****     
1404:Drivers/STM32F1xx_HAL_Driver/Src/stm32f1xx_hal_rtc.c ****     /* Wait for synchro */
1405:Drivers/STM32F1xx_HAL_Driver/Src/stm32f1xx_hal_rtc.c ****     if(RTC_ExitInitMode(hrtc) != HAL_OK)
1406:Drivers/STM32F1xx_HAL_Driver/Src/stm32f1xx_hal_rtc.c ****     {       
1407:Drivers/STM32F1xx_HAL_Driver/Src/stm32f1xx_hal_rtc.c ****       status = HAL_ERROR;
1408:Drivers/STM32F1xx_HAL_Driver/Src/stm32f1xx_hal_rtc.c ****     }
1409:Drivers/STM32F1xx_HAL_Driver/Src/stm32f1xx_hal_rtc.c ****   }
1410:Drivers/STM32F1xx_HAL_Driver/Src/stm32f1xx_hal_rtc.c **** 
1411:Drivers/STM32F1xx_HAL_Driver/Src/stm32f1xx_hal_rtc.c ****   return status;
1412:Drivers/STM32F1xx_HAL_Driver/Src/stm32f1xx_hal_rtc.c **** }
1413:Drivers/STM32F1xx_HAL_Driver/Src/stm32f1xx_hal_rtc.c **** 
1414:Drivers/STM32F1xx_HAL_Driver/Src/stm32f1xx_hal_rtc.c **** /**
1415:Drivers/STM32F1xx_HAL_Driver/Src/stm32f1xx_hal_rtc.c ****   * @brief  Read the time counter available in RTC_ALR registers.
1416:Drivers/STM32F1xx_HAL_Driver/Src/stm32f1xx_hal_rtc.c ****   * @param  hrtc   pointer to a RTC_HandleTypeDef structure that contains
1417:Drivers/STM32F1xx_HAL_Driver/Src/stm32f1xx_hal_rtc.c ****   *                the configuration information for RTC.
1418:Drivers/STM32F1xx_HAL_Driver/Src/stm32f1xx_hal_rtc.c ****   * @retval Time counter
1419:Drivers/STM32F1xx_HAL_Driver/Src/stm32f1xx_hal_rtc.c ****   */
1420:Drivers/STM32F1xx_HAL_Driver/Src/stm32f1xx_hal_rtc.c **** static uint32_t RTC_ReadAlarmCounter(RTC_HandleTypeDef* hrtc)
1421:Drivers/STM32F1xx_HAL_Driver/Src/stm32f1xx_hal_rtc.c **** {
  25              		.loc 1 1421 0
  26              		.cfi_startproc
  27              		@ args = 0, pretend = 0, frame = 0
  28              		@ frame_needed = 0, uses_anonymous_args = 0
  29              		@ link register save eliminated.
  30              	.LVL0:
1422:Drivers/STM32F1xx_HAL_Driver/Src/stm32f1xx_hal_rtc.c ****   uint16_t high1 = 0U, low = 0U;
1423:Drivers/STM32F1xx_HAL_Driver/Src/stm32f1xx_hal_rtc.c **** 
1424:Drivers/STM32F1xx_HAL_Driver/Src/stm32f1xx_hal_rtc.c ****   high1 = READ_REG(hrtc->Instance->ALRH & RTC_CNTH_RTC_CNT);
  31              		.loc 1 1424 0
  32 0000 0368     		ldr	r3, [r0]
  33 0002 186A     		ldr	r0, [r3, #32]
  34              	.LVL1:
1425:Drivers/STM32F1xx_HAL_Driver/Src/stm32f1xx_hal_rtc.c ****   low   = READ_REG(hrtc->Instance->ALRL & RTC_CNTL_RTC_CNT);
  35              		.loc 1 1425 0
  36 0004 5B6A     		ldr	r3, [r3, #36]
  37              	.LVL2:
1426:Drivers/STM32F1xx_HAL_Driver/Src/stm32f1xx_hal_rtc.c **** 
1427:Drivers/STM32F1xx_HAL_Driver/Src/stm32f1xx_hal_rtc.c ****   return (((uint32_t) high1 << 16U) | low);
  38              		.loc 1 1427 0
  39 0006 9BB2     		uxth	r3, r3
1428:Drivers/STM32F1xx_HAL_Driver/Src/stm32f1xx_hal_rtc.c **** }
  40              		.loc 1 1428 0
  41 0008 43EA0040 		orr	r0, r3, r0, lsl #16
  42              	.LVL3:
  43 000c 7047     		bx	lr
  44              		.cfi_endproc
  45              	.LFE85:
  47              		.section	.text.RTC_ByteToBcd2,"ax",%progbits
  48              		.align	1
  49              		.syntax unified
  50              		.thumb
  51              		.thumb_func
  52              		.fpu softvfp
  54              	RTC_ByteToBcd2:
  55              	.LFB89:
1429:Drivers/STM32F1xx_HAL_Driver/Src/stm32f1xx_hal_rtc.c **** 
1430:Drivers/STM32F1xx_HAL_Driver/Src/stm32f1xx_hal_rtc.c **** /**
ARM GAS  /tmp/cc2ffejw.s 			page 27


1431:Drivers/STM32F1xx_HAL_Driver/Src/stm32f1xx_hal_rtc.c ****   * @brief  Write the time counter in RTC_ALR registers.
1432:Drivers/STM32F1xx_HAL_Driver/Src/stm32f1xx_hal_rtc.c ****   * @param  hrtc   pointer to a RTC_HandleTypeDef structure that contains
1433:Drivers/STM32F1xx_HAL_Driver/Src/stm32f1xx_hal_rtc.c ****   *                the configuration information for RTC.
1434:Drivers/STM32F1xx_HAL_Driver/Src/stm32f1xx_hal_rtc.c ****   * @param  AlarmCounter: Counter to write in RTC_ALR registers
1435:Drivers/STM32F1xx_HAL_Driver/Src/stm32f1xx_hal_rtc.c ****   * @retval HAL status
1436:Drivers/STM32F1xx_HAL_Driver/Src/stm32f1xx_hal_rtc.c ****   */
1437:Drivers/STM32F1xx_HAL_Driver/Src/stm32f1xx_hal_rtc.c **** static HAL_StatusTypeDef RTC_WriteAlarmCounter(RTC_HandleTypeDef* hrtc, uint32_t AlarmCounter)
1438:Drivers/STM32F1xx_HAL_Driver/Src/stm32f1xx_hal_rtc.c **** {
1439:Drivers/STM32F1xx_HAL_Driver/Src/stm32f1xx_hal_rtc.c ****   HAL_StatusTypeDef status = HAL_OK;
1440:Drivers/STM32F1xx_HAL_Driver/Src/stm32f1xx_hal_rtc.c ****   
1441:Drivers/STM32F1xx_HAL_Driver/Src/stm32f1xx_hal_rtc.c ****   /* Set Initialization mode */
1442:Drivers/STM32F1xx_HAL_Driver/Src/stm32f1xx_hal_rtc.c ****   if(RTC_EnterInitMode(hrtc) != HAL_OK)
1443:Drivers/STM32F1xx_HAL_Driver/Src/stm32f1xx_hal_rtc.c ****   {
1444:Drivers/STM32F1xx_HAL_Driver/Src/stm32f1xx_hal_rtc.c ****     status = HAL_ERROR;
1445:Drivers/STM32F1xx_HAL_Driver/Src/stm32f1xx_hal_rtc.c ****   } 
1446:Drivers/STM32F1xx_HAL_Driver/Src/stm32f1xx_hal_rtc.c ****   else
1447:Drivers/STM32F1xx_HAL_Driver/Src/stm32f1xx_hal_rtc.c ****   {
1448:Drivers/STM32F1xx_HAL_Driver/Src/stm32f1xx_hal_rtc.c ****     /* Set RTC COUNTER MSB word */
1449:Drivers/STM32F1xx_HAL_Driver/Src/stm32f1xx_hal_rtc.c ****     WRITE_REG(hrtc->Instance->ALRH, (AlarmCounter >> 16U));
1450:Drivers/STM32F1xx_HAL_Driver/Src/stm32f1xx_hal_rtc.c ****     /* Set RTC COUNTER LSB word */
1451:Drivers/STM32F1xx_HAL_Driver/Src/stm32f1xx_hal_rtc.c ****     WRITE_REG(hrtc->Instance->ALRL, (AlarmCounter & RTC_ALRL_RTC_ALR));
1452:Drivers/STM32F1xx_HAL_Driver/Src/stm32f1xx_hal_rtc.c ****     
1453:Drivers/STM32F1xx_HAL_Driver/Src/stm32f1xx_hal_rtc.c ****     /* Wait for synchro */
1454:Drivers/STM32F1xx_HAL_Driver/Src/stm32f1xx_hal_rtc.c ****     if(RTC_ExitInitMode(hrtc) != HAL_OK)
1455:Drivers/STM32F1xx_HAL_Driver/Src/stm32f1xx_hal_rtc.c ****     {       
1456:Drivers/STM32F1xx_HAL_Driver/Src/stm32f1xx_hal_rtc.c ****       status = HAL_ERROR;
1457:Drivers/STM32F1xx_HAL_Driver/Src/stm32f1xx_hal_rtc.c ****     }
1458:Drivers/STM32F1xx_HAL_Driver/Src/stm32f1xx_hal_rtc.c ****   }
1459:Drivers/STM32F1xx_HAL_Driver/Src/stm32f1xx_hal_rtc.c **** 
1460:Drivers/STM32F1xx_HAL_Driver/Src/stm32f1xx_hal_rtc.c ****   return status;
1461:Drivers/STM32F1xx_HAL_Driver/Src/stm32f1xx_hal_rtc.c **** }
1462:Drivers/STM32F1xx_HAL_Driver/Src/stm32f1xx_hal_rtc.c **** 
1463:Drivers/STM32F1xx_HAL_Driver/Src/stm32f1xx_hal_rtc.c **** /**
1464:Drivers/STM32F1xx_HAL_Driver/Src/stm32f1xx_hal_rtc.c ****   * @brief  Enters the RTC Initialization mode.
1465:Drivers/STM32F1xx_HAL_Driver/Src/stm32f1xx_hal_rtc.c ****   * @param  hrtc   pointer to a RTC_HandleTypeDef structure that contains
1466:Drivers/STM32F1xx_HAL_Driver/Src/stm32f1xx_hal_rtc.c ****   *                the configuration information for RTC.
1467:Drivers/STM32F1xx_HAL_Driver/Src/stm32f1xx_hal_rtc.c ****   * @retval HAL status
1468:Drivers/STM32F1xx_HAL_Driver/Src/stm32f1xx_hal_rtc.c ****   */
1469:Drivers/STM32F1xx_HAL_Driver/Src/stm32f1xx_hal_rtc.c **** static HAL_StatusTypeDef RTC_EnterInitMode(RTC_HandleTypeDef* hrtc)
1470:Drivers/STM32F1xx_HAL_Driver/Src/stm32f1xx_hal_rtc.c **** {
1471:Drivers/STM32F1xx_HAL_Driver/Src/stm32f1xx_hal_rtc.c ****   uint32_t tickstart = 0U;
1472:Drivers/STM32F1xx_HAL_Driver/Src/stm32f1xx_hal_rtc.c ****   
1473:Drivers/STM32F1xx_HAL_Driver/Src/stm32f1xx_hal_rtc.c ****   tickstart = HAL_GetTick();
1474:Drivers/STM32F1xx_HAL_Driver/Src/stm32f1xx_hal_rtc.c ****   /* Wait till RTC is in INIT state and if Time out is reached exit */
1475:Drivers/STM32F1xx_HAL_Driver/Src/stm32f1xx_hal_rtc.c ****   while((hrtc->Instance->CRL & RTC_CRL_RTOFF) == (uint32_t)RESET)
1476:Drivers/STM32F1xx_HAL_Driver/Src/stm32f1xx_hal_rtc.c ****   {
1477:Drivers/STM32F1xx_HAL_Driver/Src/stm32f1xx_hal_rtc.c ****     if((HAL_GetTick() - tickstart) >  RTC_TIMEOUT_VALUE)
1478:Drivers/STM32F1xx_HAL_Driver/Src/stm32f1xx_hal_rtc.c ****     {       
1479:Drivers/STM32F1xx_HAL_Driver/Src/stm32f1xx_hal_rtc.c ****       return HAL_TIMEOUT;
1480:Drivers/STM32F1xx_HAL_Driver/Src/stm32f1xx_hal_rtc.c ****     } 
1481:Drivers/STM32F1xx_HAL_Driver/Src/stm32f1xx_hal_rtc.c ****   }
1482:Drivers/STM32F1xx_HAL_Driver/Src/stm32f1xx_hal_rtc.c **** 
1483:Drivers/STM32F1xx_HAL_Driver/Src/stm32f1xx_hal_rtc.c ****   /* Disable the write protection for RTC registers */
1484:Drivers/STM32F1xx_HAL_Driver/Src/stm32f1xx_hal_rtc.c ****   __HAL_RTC_WRITEPROTECTION_DISABLE(hrtc);
1485:Drivers/STM32F1xx_HAL_Driver/Src/stm32f1xx_hal_rtc.c ****   
1486:Drivers/STM32F1xx_HAL_Driver/Src/stm32f1xx_hal_rtc.c ****   
1487:Drivers/STM32F1xx_HAL_Driver/Src/stm32f1xx_hal_rtc.c ****   return HAL_OK;  
ARM GAS  /tmp/cc2ffejw.s 			page 28


1488:Drivers/STM32F1xx_HAL_Driver/Src/stm32f1xx_hal_rtc.c **** }
1489:Drivers/STM32F1xx_HAL_Driver/Src/stm32f1xx_hal_rtc.c **** 
1490:Drivers/STM32F1xx_HAL_Driver/Src/stm32f1xx_hal_rtc.c **** /**
1491:Drivers/STM32F1xx_HAL_Driver/Src/stm32f1xx_hal_rtc.c ****   * @brief  Exit the RTC Initialization mode.
1492:Drivers/STM32F1xx_HAL_Driver/Src/stm32f1xx_hal_rtc.c ****   * @param  hrtc   pointer to a RTC_HandleTypeDef structure that contains
1493:Drivers/STM32F1xx_HAL_Driver/Src/stm32f1xx_hal_rtc.c ****   *                the configuration information for RTC.
1494:Drivers/STM32F1xx_HAL_Driver/Src/stm32f1xx_hal_rtc.c ****   * @retval HAL status
1495:Drivers/STM32F1xx_HAL_Driver/Src/stm32f1xx_hal_rtc.c ****   */
1496:Drivers/STM32F1xx_HAL_Driver/Src/stm32f1xx_hal_rtc.c **** static HAL_StatusTypeDef RTC_ExitInitMode(RTC_HandleTypeDef* hrtc)
1497:Drivers/STM32F1xx_HAL_Driver/Src/stm32f1xx_hal_rtc.c **** {
1498:Drivers/STM32F1xx_HAL_Driver/Src/stm32f1xx_hal_rtc.c ****   uint32_t tickstart = 0U;
1499:Drivers/STM32F1xx_HAL_Driver/Src/stm32f1xx_hal_rtc.c ****   
1500:Drivers/STM32F1xx_HAL_Driver/Src/stm32f1xx_hal_rtc.c ****   /* Disable the write protection for RTC registers */
1501:Drivers/STM32F1xx_HAL_Driver/Src/stm32f1xx_hal_rtc.c ****   __HAL_RTC_WRITEPROTECTION_ENABLE(hrtc);
1502:Drivers/STM32F1xx_HAL_Driver/Src/stm32f1xx_hal_rtc.c ****   
1503:Drivers/STM32F1xx_HAL_Driver/Src/stm32f1xx_hal_rtc.c ****   tickstart = HAL_GetTick();
1504:Drivers/STM32F1xx_HAL_Driver/Src/stm32f1xx_hal_rtc.c ****   /* Wait till RTC is in INIT state and if Time out is reached exit */
1505:Drivers/STM32F1xx_HAL_Driver/Src/stm32f1xx_hal_rtc.c ****   while((hrtc->Instance->CRL & RTC_CRL_RTOFF) == (uint32_t)RESET)
1506:Drivers/STM32F1xx_HAL_Driver/Src/stm32f1xx_hal_rtc.c ****   {
1507:Drivers/STM32F1xx_HAL_Driver/Src/stm32f1xx_hal_rtc.c ****     if((HAL_GetTick() - tickstart) >  RTC_TIMEOUT_VALUE)
1508:Drivers/STM32F1xx_HAL_Driver/Src/stm32f1xx_hal_rtc.c ****     {       
1509:Drivers/STM32F1xx_HAL_Driver/Src/stm32f1xx_hal_rtc.c ****       return HAL_TIMEOUT;
1510:Drivers/STM32F1xx_HAL_Driver/Src/stm32f1xx_hal_rtc.c ****     } 
1511:Drivers/STM32F1xx_HAL_Driver/Src/stm32f1xx_hal_rtc.c ****   }
1512:Drivers/STM32F1xx_HAL_Driver/Src/stm32f1xx_hal_rtc.c ****   
1513:Drivers/STM32F1xx_HAL_Driver/Src/stm32f1xx_hal_rtc.c ****   return HAL_OK;  
1514:Drivers/STM32F1xx_HAL_Driver/Src/stm32f1xx_hal_rtc.c **** }
1515:Drivers/STM32F1xx_HAL_Driver/Src/stm32f1xx_hal_rtc.c **** 
1516:Drivers/STM32F1xx_HAL_Driver/Src/stm32f1xx_hal_rtc.c **** /**
1517:Drivers/STM32F1xx_HAL_Driver/Src/stm32f1xx_hal_rtc.c ****   * @brief  Converts a 2 digit decimal to BCD format.
1518:Drivers/STM32F1xx_HAL_Driver/Src/stm32f1xx_hal_rtc.c ****   * @param  Value: Byte to be converted
1519:Drivers/STM32F1xx_HAL_Driver/Src/stm32f1xx_hal_rtc.c ****   * @retval Converted byte
1520:Drivers/STM32F1xx_HAL_Driver/Src/stm32f1xx_hal_rtc.c ****   */
1521:Drivers/STM32F1xx_HAL_Driver/Src/stm32f1xx_hal_rtc.c **** static uint8_t RTC_ByteToBcd2(uint8_t Value)
1522:Drivers/STM32F1xx_HAL_Driver/Src/stm32f1xx_hal_rtc.c **** {
  56              		.loc 1 1522 0
  57              		.cfi_startproc
  58              		@ args = 0, pretend = 0, frame = 0
  59              		@ frame_needed = 0, uses_anonymous_args = 0
  60              		@ link register save eliminated.
  61              	.LVL4:
1523:Drivers/STM32F1xx_HAL_Driver/Src/stm32f1xx_hal_rtc.c ****   uint32_t bcdhigh = 0U;
  62              		.loc 1 1523 0
  63 0000 0023     		movs	r3, #0
1524:Drivers/STM32F1xx_HAL_Driver/Src/stm32f1xx_hal_rtc.c ****   
1525:Drivers/STM32F1xx_HAL_Driver/Src/stm32f1xx_hal_rtc.c ****   while(Value >= 10U)
  64              		.loc 1 1525 0
  65 0002 02E0     		b	.L3
  66              	.LVL5:
  67              	.L4:
1526:Drivers/STM32F1xx_HAL_Driver/Src/stm32f1xx_hal_rtc.c ****   {
1527:Drivers/STM32F1xx_HAL_Driver/Src/stm32f1xx_hal_rtc.c ****     bcdhigh++;
  68              		.loc 1 1527 0
  69 0004 0133     		adds	r3, r3, #1
  70              	.LVL6:
1528:Drivers/STM32F1xx_HAL_Driver/Src/stm32f1xx_hal_rtc.c ****     Value -= 10U;
  71              		.loc 1 1528 0
ARM GAS  /tmp/cc2ffejw.s 			page 29


  72 0006 0A38     		subs	r0, r0, #10
  73              	.LVL7:
  74 0008 C0B2     		uxtb	r0, r0
  75              	.LVL8:
  76              	.L3:
1525:Drivers/STM32F1xx_HAL_Driver/Src/stm32f1xx_hal_rtc.c ****   {
  77              		.loc 1 1525 0
  78 000a 0928     		cmp	r0, #9
  79 000c FAD8     		bhi	.L4
1529:Drivers/STM32F1xx_HAL_Driver/Src/stm32f1xx_hal_rtc.c ****   }
1530:Drivers/STM32F1xx_HAL_Driver/Src/stm32f1xx_hal_rtc.c ****   
1531:Drivers/STM32F1xx_HAL_Driver/Src/stm32f1xx_hal_rtc.c ****   return  ((uint8_t)(bcdhigh << 4U) | Value);
  80              		.loc 1 1531 0
  81 000e 1B01     		lsls	r3, r3, #4
  82              	.LVL9:
  83 0010 DBB2     		uxtb	r3, r3
1532:Drivers/STM32F1xx_HAL_Driver/Src/stm32f1xx_hal_rtc.c **** }
  84              		.loc 1 1532 0
  85 0012 1843     		orrs	r0, r0, r3
  86              	.LVL10:
  87 0014 7047     		bx	lr
  88              		.cfi_endproc
  89              	.LFE89:
  91              		.section	.text.RTC_Bcd2ToByte,"ax",%progbits
  92              		.align	1
  93              		.syntax unified
  94              		.thumb
  95              		.thumb_func
  96              		.fpu softvfp
  98              	RTC_Bcd2ToByte:
  99              	.LFB90:
1533:Drivers/STM32F1xx_HAL_Driver/Src/stm32f1xx_hal_rtc.c **** 
1534:Drivers/STM32F1xx_HAL_Driver/Src/stm32f1xx_hal_rtc.c **** /**
1535:Drivers/STM32F1xx_HAL_Driver/Src/stm32f1xx_hal_rtc.c ****   * @brief  Converts from 2 digit BCD to Binary.
1536:Drivers/STM32F1xx_HAL_Driver/Src/stm32f1xx_hal_rtc.c ****   * @param  Value: BCD value to be converted
1537:Drivers/STM32F1xx_HAL_Driver/Src/stm32f1xx_hal_rtc.c ****   * @retval Converted word
1538:Drivers/STM32F1xx_HAL_Driver/Src/stm32f1xx_hal_rtc.c ****   */
1539:Drivers/STM32F1xx_HAL_Driver/Src/stm32f1xx_hal_rtc.c **** static uint8_t RTC_Bcd2ToByte(uint8_t Value)
1540:Drivers/STM32F1xx_HAL_Driver/Src/stm32f1xx_hal_rtc.c **** {
 100              		.loc 1 1540 0
 101              		.cfi_startproc
 102              		@ args = 0, pretend = 0, frame = 0
 103              		@ frame_needed = 0, uses_anonymous_args = 0
 104              		@ link register save eliminated.
 105              	.LVL11:
1541:Drivers/STM32F1xx_HAL_Driver/Src/stm32f1xx_hal_rtc.c ****   uint32_t tmp = 0U;
1542:Drivers/STM32F1xx_HAL_Driver/Src/stm32f1xx_hal_rtc.c ****   tmp = ((uint8_t)(Value & (uint8_t)0xF0) >> (uint8_t)0x4) * 10U;
 106              		.loc 1 1542 0
 107 0000 0309     		lsrs	r3, r0, #4
 108 0002 03EB8303 		add	r3, r3, r3, lsl #2
 109 0006 5A00     		lsls	r2, r3, #1
 110              	.LVL12:
1543:Drivers/STM32F1xx_HAL_Driver/Src/stm32f1xx_hal_rtc.c ****   return (tmp + (Value & (uint8_t)0x0F));
 111              		.loc 1 1543 0
 112 0008 00F00F00 		and	r0, r0, #15
 113              	.LVL13:
 114 000c 1044     		add	r0, r0, r2
ARM GAS  /tmp/cc2ffejw.s 			page 30


1544:Drivers/STM32F1xx_HAL_Driver/Src/stm32f1xx_hal_rtc.c **** }
 115              		.loc 1 1544 0
 116 000e C0B2     		uxtb	r0, r0
 117 0010 7047     		bx	lr
 118              		.cfi_endproc
 119              	.LFE90:
 121              		.section	.text.RTC_IsLeapYear,"ax",%progbits
 122              		.align	1
 123              		.syntax unified
 124              		.thumb
 125              		.thumb_func
 126              		.fpu softvfp
 128              	RTC_IsLeapYear:
 129              	.LFB92:
1545:Drivers/STM32F1xx_HAL_Driver/Src/stm32f1xx_hal_rtc.c **** 
1546:Drivers/STM32F1xx_HAL_Driver/Src/stm32f1xx_hal_rtc.c **** /**
1547:Drivers/STM32F1xx_HAL_Driver/Src/stm32f1xx_hal_rtc.c ****   * @brief  Updates date when time is 23:59:59.
1548:Drivers/STM32F1xx_HAL_Driver/Src/stm32f1xx_hal_rtc.c ****   * @param  hrtc   pointer to a RTC_HandleTypeDef structure that contains
1549:Drivers/STM32F1xx_HAL_Driver/Src/stm32f1xx_hal_rtc.c ****   *                the configuration information for RTC.
1550:Drivers/STM32F1xx_HAL_Driver/Src/stm32f1xx_hal_rtc.c ****   * @param  DayElapsed: Number of days elapsed from last date update
1551:Drivers/STM32F1xx_HAL_Driver/Src/stm32f1xx_hal_rtc.c ****   * @retval None
1552:Drivers/STM32F1xx_HAL_Driver/Src/stm32f1xx_hal_rtc.c ****   */
1553:Drivers/STM32F1xx_HAL_Driver/Src/stm32f1xx_hal_rtc.c **** static void RTC_DateUpdate(RTC_HandleTypeDef* hrtc, uint32_t DayElapsed)
1554:Drivers/STM32F1xx_HAL_Driver/Src/stm32f1xx_hal_rtc.c **** {
1555:Drivers/STM32F1xx_HAL_Driver/Src/stm32f1xx_hal_rtc.c ****   uint32_t year = 0U, month = 0U, day = 0U;
1556:Drivers/STM32F1xx_HAL_Driver/Src/stm32f1xx_hal_rtc.c ****   uint32_t loop = 0U;
1557:Drivers/STM32F1xx_HAL_Driver/Src/stm32f1xx_hal_rtc.c **** 
1558:Drivers/STM32F1xx_HAL_Driver/Src/stm32f1xx_hal_rtc.c ****   /* Get the current year*/
1559:Drivers/STM32F1xx_HAL_Driver/Src/stm32f1xx_hal_rtc.c ****   year = hrtc->DateToUpdate.Year;
1560:Drivers/STM32F1xx_HAL_Driver/Src/stm32f1xx_hal_rtc.c **** 
1561:Drivers/STM32F1xx_HAL_Driver/Src/stm32f1xx_hal_rtc.c ****   /* Get the current month and day */
1562:Drivers/STM32F1xx_HAL_Driver/Src/stm32f1xx_hal_rtc.c ****   month = hrtc->DateToUpdate.Month;
1563:Drivers/STM32F1xx_HAL_Driver/Src/stm32f1xx_hal_rtc.c ****   day = hrtc->DateToUpdate.Date;
1564:Drivers/STM32F1xx_HAL_Driver/Src/stm32f1xx_hal_rtc.c **** 
1565:Drivers/STM32F1xx_HAL_Driver/Src/stm32f1xx_hal_rtc.c ****   for (loop = 0U; loop < DayElapsed; loop++)
1566:Drivers/STM32F1xx_HAL_Driver/Src/stm32f1xx_hal_rtc.c ****   {
1567:Drivers/STM32F1xx_HAL_Driver/Src/stm32f1xx_hal_rtc.c ****     if((month == 1U) || (month == 3U) || (month == 5U) || (month == 7U) || \
1568:Drivers/STM32F1xx_HAL_Driver/Src/stm32f1xx_hal_rtc.c ****        (month == 8U) || (month == 10U) || (month == 12U))
1569:Drivers/STM32F1xx_HAL_Driver/Src/stm32f1xx_hal_rtc.c ****     {
1570:Drivers/STM32F1xx_HAL_Driver/Src/stm32f1xx_hal_rtc.c ****       if(day < 31U)
1571:Drivers/STM32F1xx_HAL_Driver/Src/stm32f1xx_hal_rtc.c ****       {
1572:Drivers/STM32F1xx_HAL_Driver/Src/stm32f1xx_hal_rtc.c ****         day++;
1573:Drivers/STM32F1xx_HAL_Driver/Src/stm32f1xx_hal_rtc.c ****       }
1574:Drivers/STM32F1xx_HAL_Driver/Src/stm32f1xx_hal_rtc.c ****       /* Date structure member: day = 31 */
1575:Drivers/STM32F1xx_HAL_Driver/Src/stm32f1xx_hal_rtc.c ****       else
1576:Drivers/STM32F1xx_HAL_Driver/Src/stm32f1xx_hal_rtc.c ****       {
1577:Drivers/STM32F1xx_HAL_Driver/Src/stm32f1xx_hal_rtc.c ****         if(month != 12U)
1578:Drivers/STM32F1xx_HAL_Driver/Src/stm32f1xx_hal_rtc.c ****         {
1579:Drivers/STM32F1xx_HAL_Driver/Src/stm32f1xx_hal_rtc.c ****           month++;
1580:Drivers/STM32F1xx_HAL_Driver/Src/stm32f1xx_hal_rtc.c ****           day = 1U;
1581:Drivers/STM32F1xx_HAL_Driver/Src/stm32f1xx_hal_rtc.c ****         }
1582:Drivers/STM32F1xx_HAL_Driver/Src/stm32f1xx_hal_rtc.c ****         /* Date structure member: day = 31 & month =12 */
1583:Drivers/STM32F1xx_HAL_Driver/Src/stm32f1xx_hal_rtc.c ****         else
1584:Drivers/STM32F1xx_HAL_Driver/Src/stm32f1xx_hal_rtc.c ****         {
1585:Drivers/STM32F1xx_HAL_Driver/Src/stm32f1xx_hal_rtc.c ****           month = 1U;
1586:Drivers/STM32F1xx_HAL_Driver/Src/stm32f1xx_hal_rtc.c ****           day = 1U;
1587:Drivers/STM32F1xx_HAL_Driver/Src/stm32f1xx_hal_rtc.c ****           year++;
ARM GAS  /tmp/cc2ffejw.s 			page 31


1588:Drivers/STM32F1xx_HAL_Driver/Src/stm32f1xx_hal_rtc.c ****         }
1589:Drivers/STM32F1xx_HAL_Driver/Src/stm32f1xx_hal_rtc.c ****       }
1590:Drivers/STM32F1xx_HAL_Driver/Src/stm32f1xx_hal_rtc.c ****     }
1591:Drivers/STM32F1xx_HAL_Driver/Src/stm32f1xx_hal_rtc.c ****     else if((month == 4U) || (month == 6U) || (month == 9U) || (month == 11U))
1592:Drivers/STM32F1xx_HAL_Driver/Src/stm32f1xx_hal_rtc.c ****     {
1593:Drivers/STM32F1xx_HAL_Driver/Src/stm32f1xx_hal_rtc.c ****       if(day < 30U)
1594:Drivers/STM32F1xx_HAL_Driver/Src/stm32f1xx_hal_rtc.c ****       {
1595:Drivers/STM32F1xx_HAL_Driver/Src/stm32f1xx_hal_rtc.c ****         day++;
1596:Drivers/STM32F1xx_HAL_Driver/Src/stm32f1xx_hal_rtc.c ****       }
1597:Drivers/STM32F1xx_HAL_Driver/Src/stm32f1xx_hal_rtc.c ****       /* Date structure member: day = 30 */
1598:Drivers/STM32F1xx_HAL_Driver/Src/stm32f1xx_hal_rtc.c ****       else
1599:Drivers/STM32F1xx_HAL_Driver/Src/stm32f1xx_hal_rtc.c ****       {
1600:Drivers/STM32F1xx_HAL_Driver/Src/stm32f1xx_hal_rtc.c ****         month++;
1601:Drivers/STM32F1xx_HAL_Driver/Src/stm32f1xx_hal_rtc.c ****         day = 1U;
1602:Drivers/STM32F1xx_HAL_Driver/Src/stm32f1xx_hal_rtc.c ****       }
1603:Drivers/STM32F1xx_HAL_Driver/Src/stm32f1xx_hal_rtc.c ****     }
1604:Drivers/STM32F1xx_HAL_Driver/Src/stm32f1xx_hal_rtc.c ****     else if(month == 2U)
1605:Drivers/STM32F1xx_HAL_Driver/Src/stm32f1xx_hal_rtc.c ****     {
1606:Drivers/STM32F1xx_HAL_Driver/Src/stm32f1xx_hal_rtc.c ****       if(day < 28U)
1607:Drivers/STM32F1xx_HAL_Driver/Src/stm32f1xx_hal_rtc.c ****       {
1608:Drivers/STM32F1xx_HAL_Driver/Src/stm32f1xx_hal_rtc.c ****         day++;
1609:Drivers/STM32F1xx_HAL_Driver/Src/stm32f1xx_hal_rtc.c ****       }
1610:Drivers/STM32F1xx_HAL_Driver/Src/stm32f1xx_hal_rtc.c ****       else if(day == 28U)
1611:Drivers/STM32F1xx_HAL_Driver/Src/stm32f1xx_hal_rtc.c ****       {
1612:Drivers/STM32F1xx_HAL_Driver/Src/stm32f1xx_hal_rtc.c ****         /* Leap year */
1613:Drivers/STM32F1xx_HAL_Driver/Src/stm32f1xx_hal_rtc.c ****         if(RTC_IsLeapYear(year))
1614:Drivers/STM32F1xx_HAL_Driver/Src/stm32f1xx_hal_rtc.c ****         {
1615:Drivers/STM32F1xx_HAL_Driver/Src/stm32f1xx_hal_rtc.c ****           day++;
1616:Drivers/STM32F1xx_HAL_Driver/Src/stm32f1xx_hal_rtc.c ****         }
1617:Drivers/STM32F1xx_HAL_Driver/Src/stm32f1xx_hal_rtc.c ****         else
1618:Drivers/STM32F1xx_HAL_Driver/Src/stm32f1xx_hal_rtc.c ****         {
1619:Drivers/STM32F1xx_HAL_Driver/Src/stm32f1xx_hal_rtc.c ****           month++;
1620:Drivers/STM32F1xx_HAL_Driver/Src/stm32f1xx_hal_rtc.c ****           day = 1U;
1621:Drivers/STM32F1xx_HAL_Driver/Src/stm32f1xx_hal_rtc.c ****         }
1622:Drivers/STM32F1xx_HAL_Driver/Src/stm32f1xx_hal_rtc.c ****       }
1623:Drivers/STM32F1xx_HAL_Driver/Src/stm32f1xx_hal_rtc.c ****       else if(day == 29U)
1624:Drivers/STM32F1xx_HAL_Driver/Src/stm32f1xx_hal_rtc.c ****       {
1625:Drivers/STM32F1xx_HAL_Driver/Src/stm32f1xx_hal_rtc.c ****         month++;
1626:Drivers/STM32F1xx_HAL_Driver/Src/stm32f1xx_hal_rtc.c ****         day = 1U;
1627:Drivers/STM32F1xx_HAL_Driver/Src/stm32f1xx_hal_rtc.c ****       }
1628:Drivers/STM32F1xx_HAL_Driver/Src/stm32f1xx_hal_rtc.c ****     }
1629:Drivers/STM32F1xx_HAL_Driver/Src/stm32f1xx_hal_rtc.c ****   }
1630:Drivers/STM32F1xx_HAL_Driver/Src/stm32f1xx_hal_rtc.c **** 
1631:Drivers/STM32F1xx_HAL_Driver/Src/stm32f1xx_hal_rtc.c ****   /* Update year */
1632:Drivers/STM32F1xx_HAL_Driver/Src/stm32f1xx_hal_rtc.c ****   hrtc->DateToUpdate.Year = year;
1633:Drivers/STM32F1xx_HAL_Driver/Src/stm32f1xx_hal_rtc.c **** 
1634:Drivers/STM32F1xx_HAL_Driver/Src/stm32f1xx_hal_rtc.c ****   /* Update day and month */
1635:Drivers/STM32F1xx_HAL_Driver/Src/stm32f1xx_hal_rtc.c ****   hrtc->DateToUpdate.Month = month;
1636:Drivers/STM32F1xx_HAL_Driver/Src/stm32f1xx_hal_rtc.c ****   hrtc->DateToUpdate.Date = day;
1637:Drivers/STM32F1xx_HAL_Driver/Src/stm32f1xx_hal_rtc.c **** 
1638:Drivers/STM32F1xx_HAL_Driver/Src/stm32f1xx_hal_rtc.c ****   /* Update day of the week */
1639:Drivers/STM32F1xx_HAL_Driver/Src/stm32f1xx_hal_rtc.c ****   hrtc->DateToUpdate.WeekDay = RTC_WeekDayNum(year, month, day);
1640:Drivers/STM32F1xx_HAL_Driver/Src/stm32f1xx_hal_rtc.c **** }
1641:Drivers/STM32F1xx_HAL_Driver/Src/stm32f1xx_hal_rtc.c **** 
1642:Drivers/STM32F1xx_HAL_Driver/Src/stm32f1xx_hal_rtc.c **** /**
1643:Drivers/STM32F1xx_HAL_Driver/Src/stm32f1xx_hal_rtc.c ****   * @brief  Check whether the passed year is Leap or not.
1644:Drivers/STM32F1xx_HAL_Driver/Src/stm32f1xx_hal_rtc.c ****   * @param  nYear  year to check
ARM GAS  /tmp/cc2ffejw.s 			page 32


1645:Drivers/STM32F1xx_HAL_Driver/Src/stm32f1xx_hal_rtc.c ****   * @retval 1: leap year
1646:Drivers/STM32F1xx_HAL_Driver/Src/stm32f1xx_hal_rtc.c ****   *         0: not leap year
1647:Drivers/STM32F1xx_HAL_Driver/Src/stm32f1xx_hal_rtc.c ****   */
1648:Drivers/STM32F1xx_HAL_Driver/Src/stm32f1xx_hal_rtc.c **** static uint8_t RTC_IsLeapYear(uint16_t nYear)
1649:Drivers/STM32F1xx_HAL_Driver/Src/stm32f1xx_hal_rtc.c **** {
 130              		.loc 1 1649 0
 131              		.cfi_startproc
 132              		@ args = 0, pretend = 0, frame = 0
 133              		@ frame_needed = 0, uses_anonymous_args = 0
 134              		@ link register save eliminated.
 135              	.LVL14:
1650:Drivers/STM32F1xx_HAL_Driver/Src/stm32f1xx_hal_rtc.c ****   if((nYear % 4U) != 0U) 
 136              		.loc 1 1650 0
 137 0000 10F0030F 		tst	r0, #3
 138 0004 16D1     		bne	.L8
1651:Drivers/STM32F1xx_HAL_Driver/Src/stm32f1xx_hal_rtc.c ****   {
1652:Drivers/STM32F1xx_HAL_Driver/Src/stm32f1xx_hal_rtc.c ****     return 0U;
1653:Drivers/STM32F1xx_HAL_Driver/Src/stm32f1xx_hal_rtc.c ****   }
1654:Drivers/STM32F1xx_HAL_Driver/Src/stm32f1xx_hal_rtc.c ****   
1655:Drivers/STM32F1xx_HAL_Driver/Src/stm32f1xx_hal_rtc.c ****   if((nYear % 100U) != 0U) 
 139              		.loc 1 1655 0
 140 0006 0D4B     		ldr	r3, .L12
 141 0008 A3FB0023 		umull	r2, r3, r3, r0
 142 000c 5B09     		lsrs	r3, r3, #5
 143 000e 6422     		movs	r2, #100
 144 0010 02FB1303 		mls	r3, r2, r3, r0
 145 0014 9BB2     		uxth	r3, r3
 146 0016 7BB9     		cbnz	r3, .L9
1656:Drivers/STM32F1xx_HAL_Driver/Src/stm32f1xx_hal_rtc.c ****   {
1657:Drivers/STM32F1xx_HAL_Driver/Src/stm32f1xx_hal_rtc.c ****     return 1U;
1658:Drivers/STM32F1xx_HAL_Driver/Src/stm32f1xx_hal_rtc.c ****   }
1659:Drivers/STM32F1xx_HAL_Driver/Src/stm32f1xx_hal_rtc.c ****   
1660:Drivers/STM32F1xx_HAL_Driver/Src/stm32f1xx_hal_rtc.c ****   if((nYear % 400U) == 0U)
 147              		.loc 1 1660 0
 148 0018 084B     		ldr	r3, .L12
 149 001a A3FB0023 		umull	r2, r3, r3, r0
 150 001e DB09     		lsrs	r3, r3, #7
 151 0020 4FF4C872 		mov	r2, #400
 152 0024 02FB1300 		mls	r0, r2, r3, r0
 153              	.LVL15:
 154 0028 80B2     		uxth	r0, r0
 155 002a 08B1     		cbz	r0, .L11
1661:Drivers/STM32F1xx_HAL_Driver/Src/stm32f1xx_hal_rtc.c ****   {
1662:Drivers/STM32F1xx_HAL_Driver/Src/stm32f1xx_hal_rtc.c ****     return 1U;
1663:Drivers/STM32F1xx_HAL_Driver/Src/stm32f1xx_hal_rtc.c ****   }
1664:Drivers/STM32F1xx_HAL_Driver/Src/stm32f1xx_hal_rtc.c ****   else
1665:Drivers/STM32F1xx_HAL_Driver/Src/stm32f1xx_hal_rtc.c ****   {
1666:Drivers/STM32F1xx_HAL_Driver/Src/stm32f1xx_hal_rtc.c ****     return 0U;
 156              		.loc 1 1666 0
 157 002c 0020     		movs	r0, #0
1667:Drivers/STM32F1xx_HAL_Driver/Src/stm32f1xx_hal_rtc.c ****   }
1668:Drivers/STM32F1xx_HAL_Driver/Src/stm32f1xx_hal_rtc.c **** }
 158              		.loc 1 1668 0
 159 002e 7047     		bx	lr
 160              	.L11:
1662:Drivers/STM32F1xx_HAL_Driver/Src/stm32f1xx_hal_rtc.c ****   }
 161              		.loc 1 1662 0
ARM GAS  /tmp/cc2ffejw.s 			page 33


 162 0030 0120     		movs	r0, #1
 163 0032 7047     		bx	lr
 164              	.LVL16:
 165              	.L8:
1652:Drivers/STM32F1xx_HAL_Driver/Src/stm32f1xx_hal_rtc.c ****   }
 166              		.loc 1 1652 0
 167 0034 0020     		movs	r0, #0
 168              	.LVL17:
 169 0036 7047     		bx	lr
 170              	.LVL18:
 171              	.L9:
1657:Drivers/STM32F1xx_HAL_Driver/Src/stm32f1xx_hal_rtc.c ****   }
 172              		.loc 1 1657 0
 173 0038 0120     		movs	r0, #1
 174              	.LVL19:
 175 003a 7047     		bx	lr
 176              	.L13:
 177              		.align	2
 178              	.L12:
 179 003c 1F85EB51 		.word	1374389535
 180              		.cfi_endproc
 181              	.LFE92:
 183              		.section	.text.RTC_WeekDayNum,"ax",%progbits
 184              		.align	1
 185              		.syntax unified
 186              		.thumb
 187              		.thumb_func
 188              		.fpu softvfp
 190              	RTC_WeekDayNum:
 191              	.LFB93:
1669:Drivers/STM32F1xx_HAL_Driver/Src/stm32f1xx_hal_rtc.c **** 
1670:Drivers/STM32F1xx_HAL_Driver/Src/stm32f1xx_hal_rtc.c **** /**
1671:Drivers/STM32F1xx_HAL_Driver/Src/stm32f1xx_hal_rtc.c ****   * @brief  Determines the week number, the day number and the week day number.
1672:Drivers/STM32F1xx_HAL_Driver/Src/stm32f1xx_hal_rtc.c ****   * @param  nYear   year to check
1673:Drivers/STM32F1xx_HAL_Driver/Src/stm32f1xx_hal_rtc.c ****   * @param  nMonth  Month to check
1674:Drivers/STM32F1xx_HAL_Driver/Src/stm32f1xx_hal_rtc.c ****   * @param  nDay    Day to check
1675:Drivers/STM32F1xx_HAL_Driver/Src/stm32f1xx_hal_rtc.c ****   * @note   Day is calculated with hypothesis that year > 2000
1676:Drivers/STM32F1xx_HAL_Driver/Src/stm32f1xx_hal_rtc.c ****   * @retval Value which can take one of the following parameters:
1677:Drivers/STM32F1xx_HAL_Driver/Src/stm32f1xx_hal_rtc.c ****   *         @arg RTC_WEEKDAY_MONDAY
1678:Drivers/STM32F1xx_HAL_Driver/Src/stm32f1xx_hal_rtc.c ****   *         @arg RTC_WEEKDAY_TUESDAY
1679:Drivers/STM32F1xx_HAL_Driver/Src/stm32f1xx_hal_rtc.c ****   *         @arg RTC_WEEKDAY_WEDNESDAY
1680:Drivers/STM32F1xx_HAL_Driver/Src/stm32f1xx_hal_rtc.c ****   *         @arg RTC_WEEKDAY_THURSDAY
1681:Drivers/STM32F1xx_HAL_Driver/Src/stm32f1xx_hal_rtc.c ****   *         @arg RTC_WEEKDAY_FRIDAY
1682:Drivers/STM32F1xx_HAL_Driver/Src/stm32f1xx_hal_rtc.c ****   *         @arg RTC_WEEKDAY_SATURDAY
1683:Drivers/STM32F1xx_HAL_Driver/Src/stm32f1xx_hal_rtc.c ****   *         @arg RTC_WEEKDAY_SUNDAY
1684:Drivers/STM32F1xx_HAL_Driver/Src/stm32f1xx_hal_rtc.c ****   */
1685:Drivers/STM32F1xx_HAL_Driver/Src/stm32f1xx_hal_rtc.c **** static uint8_t RTC_WeekDayNum(uint32_t nYear, uint8_t nMonth, uint8_t nDay)
1686:Drivers/STM32F1xx_HAL_Driver/Src/stm32f1xx_hal_rtc.c **** {
 192              		.loc 1 1686 0
 193              		.cfi_startproc
 194              		@ args = 0, pretend = 0, frame = 0
 195              		@ frame_needed = 0, uses_anonymous_args = 0
 196              		@ link register save eliminated.
 197              	.LVL20:
 198 0000 10B4     		push	{r4}
 199              	.LCFI0:
 200              		.cfi_def_cfa_offset 4
ARM GAS  /tmp/cc2ffejw.s 			page 34


 201              		.cfi_offset 4, -4
 202              	.LVL21:
1687:Drivers/STM32F1xx_HAL_Driver/Src/stm32f1xx_hal_rtc.c ****   uint32_t year = 0U, weekday = 0U;
1688:Drivers/STM32F1xx_HAL_Driver/Src/stm32f1xx_hal_rtc.c **** 
1689:Drivers/STM32F1xx_HAL_Driver/Src/stm32f1xx_hal_rtc.c ****   year = 2000U + nYear;
 203              		.loc 1 1689 0
 204 0002 00F5FA64 		add	r4, r0, #2000
 205              	.LVL22:
1690:Drivers/STM32F1xx_HAL_Driver/Src/stm32f1xx_hal_rtc.c ****   
1691:Drivers/STM32F1xx_HAL_Driver/Src/stm32f1xx_hal_rtc.c ****   if(nMonth < 3U)
 206              		.loc 1 1691 0
 207 0006 0229     		cmp	r1, #2
 208 0008 20D9     		bls	.L18
1692:Drivers/STM32F1xx_HAL_Driver/Src/stm32f1xx_hal_rtc.c ****   {
1693:Drivers/STM32F1xx_HAL_Driver/Src/stm32f1xx_hal_rtc.c ****     /*D = { [(23 x month)/9] + day + 4 + year + [(year-1)/4] - [(year-1)/100] + [(year-1)/400] } mo
1694:Drivers/STM32F1xx_HAL_Driver/Src/stm32f1xx_hal_rtc.c ****     weekday = (((23U * nMonth)/9U) + nDay + 4U + year + ((year-1U)/4U) - ((year-1U)/100U) + ((year-
1695:Drivers/STM32F1xx_HAL_Driver/Src/stm32f1xx_hal_rtc.c ****   }
1696:Drivers/STM32F1xx_HAL_Driver/Src/stm32f1xx_hal_rtc.c ****   else
1697:Drivers/STM32F1xx_HAL_Driver/Src/stm32f1xx_hal_rtc.c ****   {
1698:Drivers/STM32F1xx_HAL_Driver/Src/stm32f1xx_hal_rtc.c ****     /*D = { [(23 x month)/9] + day + 4 + year + [year/4] - [year/100] + [year/400] - 2 } mod 7*/
1699:Drivers/STM32F1xx_HAL_Driver/Src/stm32f1xx_hal_rtc.c ****     weekday = (((23U * nMonth)/9U) + nDay + 4U + year + (year/4U) - (year/100U) + (year/400U) - 2U 
 209              		.loc 1 1699 0
 210 000a 01EB4103 		add	r3, r1, r1, lsl #1
 211 000e C1EBC301 		rsb	r1, r1, r3, lsl #3
 212              	.LVL23:
 213 0012 1F4B     		ldr	r3, .L19
 214 0014 A3FB0113 		umull	r1, r3, r3, r1
 215 0018 02EB5303 		add	r3, r2, r3, lsr #1
 216 001c 2344     		add	r3, r3, r4
 217 001e 03EB9403 		add	r3, r3, r4, lsr #2
 218 0022 1C4A     		ldr	r2, .L19+4
 219              	.LVL24:
 220 0024 A2FB0424 		umull	r2, r4, r2, r4
 221              	.LVL25:
 222 0028 A3EB5413 		sub	r3, r3, r4, lsr #5
 223 002c 03EBD413 		add	r3, r3, r4, lsr #7
 224 0030 0233     		adds	r3, r3, #2
 225 0032 1948     		ldr	r0, .L19+8
 226              	.LVL26:
 227 0034 A0FB0320 		umull	r2, r0, r0, r3
 228 0038 1A1A     		subs	r2, r3, r0
 229 003a 00EB5200 		add	r0, r0, r2, lsr #1
 230 003e 8008     		lsrs	r0, r0, #2
 231 0040 C0EBC000 		rsb	r0, r0, r0, lsl #3
 232 0044 181A     		subs	r0, r3, r0
 233              	.LVL27:
 234              	.L16:
1700:Drivers/STM32F1xx_HAL_Driver/Src/stm32f1xx_hal_rtc.c ****   }
1701:Drivers/STM32F1xx_HAL_Driver/Src/stm32f1xx_hal_rtc.c **** 
1702:Drivers/STM32F1xx_HAL_Driver/Src/stm32f1xx_hal_rtc.c ****   return (uint8_t)weekday;
1703:Drivers/STM32F1xx_HAL_Driver/Src/stm32f1xx_hal_rtc.c **** }
 235              		.loc 1 1703 0
 236 0046 C0B2     		uxtb	r0, r0
 237              	.LVL28:
 238 0048 10BC     		pop	{r4}
 239              	.LCFI1:
 240              		.cfi_remember_state
ARM GAS  /tmp/cc2ffejw.s 			page 35


 241              		.cfi_restore 4
 242              		.cfi_def_cfa_offset 0
 243 004a 7047     		bx	lr
 244              	.LVL29:
 245              	.L18:
 246              	.LCFI2:
 247              		.cfi_restore_state
1694:Drivers/STM32F1xx_HAL_Driver/Src/stm32f1xx_hal_rtc.c ****   }
 248              		.loc 1 1694 0
 249 004c 01EB4103 		add	r3, r1, r1, lsl #1
 250 0050 C1EBC301 		rsb	r1, r1, r3, lsl #3
 251              	.LVL30:
 252 0054 0E4B     		ldr	r3, .L19
 253 0056 A3FB0113 		umull	r1, r3, r3, r1
 254 005a 02EB5303 		add	r3, r2, r3, lsr #1
 255 005e 2344     		add	r3, r3, r4
 256 0060 00F2CF70 		addw	r0, r0, #1999
 257              	.LVL31:
 258 0064 03EB9003 		add	r3, r3, r0, lsr #2
 259 0068 0A4A     		ldr	r2, .L19+4
 260              	.LVL32:
 261 006a A2FB0020 		umull	r2, r0, r2, r0
 262              	.LVL33:
 263 006e A3EB5013 		sub	r3, r3, r0, lsr #5
 264 0072 03EBD013 		add	r3, r3, r0, lsr #7
 265 0076 0433     		adds	r3, r3, #4
 266 0078 0748     		ldr	r0, .L19+8
 267 007a A0FB0320 		umull	r2, r0, r0, r3
 268 007e 1A1A     		subs	r2, r3, r0
 269 0080 00EB5200 		add	r0, r0, r2, lsr #1
 270 0084 8008     		lsrs	r0, r0, #2
 271 0086 C0EBC000 		rsb	r0, r0, r0, lsl #3
 272 008a 181A     		subs	r0, r3, r0
 273              	.LVL34:
 274 008c DBE7     		b	.L16
 275              	.L20:
 276 008e 00BF     		.align	2
 277              	.L19:
 278 0090 398EE338 		.word	954437177
 279 0094 1F85EB51 		.word	1374389535
 280 0098 25499224 		.word	613566757
 281              		.cfi_endproc
 282              	.LFE93:
 284              		.section	.text.RTC_DateUpdate,"ax",%progbits
 285              		.align	1
 286              		.syntax unified
 287              		.thumb
 288              		.thumb_func
 289              		.fpu softvfp
 291              	RTC_DateUpdate:
 292              	.LFB91:
1554:Drivers/STM32F1xx_HAL_Driver/Src/stm32f1xx_hal_rtc.c ****   uint32_t year = 0U, month = 0U, day = 0U;
 293              		.loc 1 1554 0
 294              		.cfi_startproc
 295              		@ args = 0, pretend = 0, frame = 0
 296              		@ frame_needed = 0, uses_anonymous_args = 0
 297              	.LVL35:
ARM GAS  /tmp/cc2ffejw.s 			page 36


 298 0000 2DE9F843 		push	{r3, r4, r5, r6, r7, r8, r9, lr}
 299              	.LCFI3:
 300              		.cfi_def_cfa_offset 32
 301              		.cfi_offset 3, -32
 302              		.cfi_offset 4, -28
 303              		.cfi_offset 5, -24
 304              		.cfi_offset 6, -20
 305              		.cfi_offset 7, -16
 306              		.cfi_offset 8, -12
 307              		.cfi_offset 9, -8
 308              		.cfi_offset 14, -4
 309 0004 0746     		mov	r7, r0
 310 0006 8846     		mov	r8, r1
 311              	.LVL36:
1559:Drivers/STM32F1xx_HAL_Driver/Src/stm32f1xx_hal_rtc.c **** 
 312              		.loc 1 1559 0
 313 0008 90F80F90 		ldrb	r9, [r0, #15]	@ zero_extendqisi2
 314              	.LVL37:
1562:Drivers/STM32F1xx_HAL_Driver/Src/stm32f1xx_hal_rtc.c ****   day = hrtc->DateToUpdate.Date;
 315              		.loc 1 1562 0
 316 000c 447B     		ldrb	r4, [r0, #13]	@ zero_extendqisi2
 317              	.LVL38:
1563:Drivers/STM32F1xx_HAL_Driver/Src/stm32f1xx_hal_rtc.c **** 
 318              		.loc 1 1563 0
 319 000e 857B     		ldrb	r5, [r0, #14]	@ zero_extendqisi2
 320              	.LVL39:
1565:Drivers/STM32F1xx_HAL_Driver/Src/stm32f1xx_hal_rtc.c ****   {
 321              		.loc 1 1565 0
 322 0010 0026     		movs	r6, #0
 323 0012 03E0     		b	.L22
 324              	.LVL40:
 325              	.L23:
1570:Drivers/STM32F1xx_HAL_Driver/Src/stm32f1xx_hal_rtc.c ****       {
 326              		.loc 1 1570 0
 327 0014 1E2D     		cmp	r5, #30
 328 0016 1FD8     		bhi	.L25
1572:Drivers/STM32F1xx_HAL_Driver/Src/stm32f1xx_hal_rtc.c ****       }
 329              		.loc 1 1572 0
 330 0018 0135     		adds	r5, r5, #1
 331              	.LVL41:
 332              	.L26:
1565:Drivers/STM32F1xx_HAL_Driver/Src/stm32f1xx_hal_rtc.c ****   {
 333              		.loc 1 1565 0 discriminator 2
 334 001a 0136     		adds	r6, r6, #1
 335              	.LVL42:
 336              	.L22:
1565:Drivers/STM32F1xx_HAL_Driver/Src/stm32f1xx_hal_rtc.c ****   {
 337              		.loc 1 1565 0 is_stmt 0 discriminator 1
 338 001c 4645     		cmp	r6, r8
 339 001e 3DD2     		bcs	.L36
1567:Drivers/STM32F1xx_HAL_Driver/Src/stm32f1xx_hal_rtc.c ****        (month == 8U) || (month == 10U) || (month == 12U))
 340              		.loc 1 1567 0 is_stmt 1
 341 0020 012C     		cmp	r4, #1
 342 0022 F7D0     		beq	.L23
1567:Drivers/STM32F1xx_HAL_Driver/Src/stm32f1xx_hal_rtc.c ****        (month == 8U) || (month == 10U) || (month == 12U))
 343              		.loc 1 1567 0 is_stmt 0 discriminator 1
 344 0024 032C     		cmp	r4, #3
ARM GAS  /tmp/cc2ffejw.s 			page 37


 345 0026 F5D0     		beq	.L23
1567:Drivers/STM32F1xx_HAL_Driver/Src/stm32f1xx_hal_rtc.c ****        (month == 8U) || (month == 10U) || (month == 12U))
 346              		.loc 1 1567 0 discriminator 2
 347 0028 052C     		cmp	r4, #5
 348 002a F3D0     		beq	.L23
1567:Drivers/STM32F1xx_HAL_Driver/Src/stm32f1xx_hal_rtc.c ****        (month == 8U) || (month == 10U) || (month == 12U))
 349              		.loc 1 1567 0 discriminator 3
 350 002c 072C     		cmp	r4, #7
 351 002e F1D0     		beq	.L23
1567:Drivers/STM32F1xx_HAL_Driver/Src/stm32f1xx_hal_rtc.c ****        (month == 8U) || (month == 10U) || (month == 12U))
 352              		.loc 1 1567 0 discriminator 4
 353 0030 082C     		cmp	r4, #8
 354 0032 EFD0     		beq	.L23
1568:Drivers/STM32F1xx_HAL_Driver/Src/stm32f1xx_hal_rtc.c ****     {
 355              		.loc 1 1568 0 is_stmt 1
 356 0034 0A2C     		cmp	r4, #10
 357 0036 EDD0     		beq	.L23
1568:Drivers/STM32F1xx_HAL_Driver/Src/stm32f1xx_hal_rtc.c ****     {
 358              		.loc 1 1568 0 is_stmt 0 discriminator 1
 359 0038 0C2C     		cmp	r4, #12
 360 003a EBD0     		beq	.L23
1591:Drivers/STM32F1xx_HAL_Driver/Src/stm32f1xx_hal_rtc.c ****     {
 361              		.loc 1 1591 0 is_stmt 1
 362 003c 042C     		cmp	r4, #4
 363 003e 15D0     		beq	.L28
1591:Drivers/STM32F1xx_HAL_Driver/Src/stm32f1xx_hal_rtc.c ****     {
 364              		.loc 1 1591 0 is_stmt 0 discriminator 1
 365 0040 062C     		cmp	r4, #6
 366 0042 13D0     		beq	.L28
1591:Drivers/STM32F1xx_HAL_Driver/Src/stm32f1xx_hal_rtc.c ****     {
 367              		.loc 1 1591 0 discriminator 2
 368 0044 092C     		cmp	r4, #9
 369 0046 11D0     		beq	.L28
1591:Drivers/STM32F1xx_HAL_Driver/Src/stm32f1xx_hal_rtc.c ****     {
 370              		.loc 1 1591 0 discriminator 3
 371 0048 0B2C     		cmp	r4, #11
 372 004a 0FD0     		beq	.L28
1604:Drivers/STM32F1xx_HAL_Driver/Src/stm32f1xx_hal_rtc.c ****     {
 373              		.loc 1 1604 0 is_stmt 1
 374 004c 022C     		cmp	r4, #2
 375 004e E4D1     		bne	.L26
1606:Drivers/STM32F1xx_HAL_Driver/Src/stm32f1xx_hal_rtc.c ****       {
 376              		.loc 1 1606 0
 377 0050 1B2D     		cmp	r5, #27
 378 0052 12D8     		bhi	.L31
1608:Drivers/STM32F1xx_HAL_Driver/Src/stm32f1xx_hal_rtc.c ****       }
 379              		.loc 1 1608 0
 380 0054 0135     		adds	r5, r5, #1
 381              	.LVL43:
 382 0056 E0E7     		b	.L26
 383              	.L25:
1577:Drivers/STM32F1xx_HAL_Driver/Src/stm32f1xx_hal_rtc.c ****         {
 384              		.loc 1 1577 0
 385 0058 0C2C     		cmp	r4, #12
 386 005a 02D0     		beq	.L27
1579:Drivers/STM32F1xx_HAL_Driver/Src/stm32f1xx_hal_rtc.c ****           day = 1U;
 387              		.loc 1 1579 0
ARM GAS  /tmp/cc2ffejw.s 			page 38


 388 005c 0134     		adds	r4, r4, #1
 389              	.LVL44:
1580:Drivers/STM32F1xx_HAL_Driver/Src/stm32f1xx_hal_rtc.c ****         }
 390              		.loc 1 1580 0
 391 005e 0125     		movs	r5, #1
 392 0060 DBE7     		b	.L26
 393              	.LVL45:
 394              	.L27:
1587:Drivers/STM32F1xx_HAL_Driver/Src/stm32f1xx_hal_rtc.c ****         }
 395              		.loc 1 1587 0
 396 0062 09F10109 		add	r9, r9, #1
 397              	.LVL46:
1586:Drivers/STM32F1xx_HAL_Driver/Src/stm32f1xx_hal_rtc.c ****           year++;
 398              		.loc 1 1586 0
 399 0066 0125     		movs	r5, #1
1585:Drivers/STM32F1xx_HAL_Driver/Src/stm32f1xx_hal_rtc.c ****           day = 1U;
 400              		.loc 1 1585 0
 401 0068 2C46     		mov	r4, r5
 402 006a D6E7     		b	.L26
 403              	.LVL47:
 404              	.L28:
1593:Drivers/STM32F1xx_HAL_Driver/Src/stm32f1xx_hal_rtc.c ****       {
 405              		.loc 1 1593 0
 406 006c 1D2D     		cmp	r5, #29
 407 006e 01D8     		bhi	.L30
1595:Drivers/STM32F1xx_HAL_Driver/Src/stm32f1xx_hal_rtc.c ****       }
 408              		.loc 1 1595 0
 409 0070 0135     		adds	r5, r5, #1
 410              	.LVL48:
 411 0072 D2E7     		b	.L26
 412              	.L30:
1600:Drivers/STM32F1xx_HAL_Driver/Src/stm32f1xx_hal_rtc.c ****         day = 1U;
 413              		.loc 1 1600 0
 414 0074 0134     		adds	r4, r4, #1
 415              	.LVL49:
1601:Drivers/STM32F1xx_HAL_Driver/Src/stm32f1xx_hal_rtc.c ****       }
 416              		.loc 1 1601 0
 417 0076 0125     		movs	r5, #1
 418 0078 CFE7     		b	.L26
 419              	.LVL50:
 420              	.L31:
1610:Drivers/STM32F1xx_HAL_Driver/Src/stm32f1xx_hal_rtc.c ****       {
 421              		.loc 1 1610 0
 422 007a 1C2D     		cmp	r5, #28
 423 007c 04D0     		beq	.L37
1623:Drivers/STM32F1xx_HAL_Driver/Src/stm32f1xx_hal_rtc.c ****       {
 424              		.loc 1 1623 0
 425 007e 1D2D     		cmp	r5, #29
 426 0080 CBD1     		bne	.L26
1625:Drivers/STM32F1xx_HAL_Driver/Src/stm32f1xx_hal_rtc.c ****         day = 1U;
 427              		.loc 1 1625 0
 428 0082 0134     		adds	r4, r4, #1
 429              	.LVL51:
1626:Drivers/STM32F1xx_HAL_Driver/Src/stm32f1xx_hal_rtc.c ****       }
 430              		.loc 1 1626 0
 431 0084 0125     		movs	r5, #1
 432 0086 C8E7     		b	.L26
ARM GAS  /tmp/cc2ffejw.s 			page 39


 433              	.LVL52:
 434              	.L37:
1613:Drivers/STM32F1xx_HAL_Driver/Src/stm32f1xx_hal_rtc.c ****         {
 435              		.loc 1 1613 0
 436 0088 1FFA89F0 		uxth	r0, r9
 437 008c FFF7FEFF 		bl	RTC_IsLeapYear
 438              	.LVL53:
 439 0090 08B1     		cbz	r0, .L33
1615:Drivers/STM32F1xx_HAL_Driver/Src/stm32f1xx_hal_rtc.c ****         }
 440              		.loc 1 1615 0
 441 0092 0135     		adds	r5, r5, #1
 442              	.LVL54:
 443 0094 C1E7     		b	.L26
 444              	.L33:
1619:Drivers/STM32F1xx_HAL_Driver/Src/stm32f1xx_hal_rtc.c ****           day = 1U;
 445              		.loc 1 1619 0
 446 0096 0134     		adds	r4, r4, #1
 447              	.LVL55:
1620:Drivers/STM32F1xx_HAL_Driver/Src/stm32f1xx_hal_rtc.c ****         }
 448              		.loc 1 1620 0
 449 0098 0125     		movs	r5, #1
 450 009a BEE7     		b	.L26
 451              	.LVL56:
 452              	.L36:
1632:Drivers/STM32F1xx_HAL_Driver/Src/stm32f1xx_hal_rtc.c **** 
 453              		.loc 1 1632 0
 454 009c 87F80F90 		strb	r9, [r7, #15]
1635:Drivers/STM32F1xx_HAL_Driver/Src/stm32f1xx_hal_rtc.c ****   hrtc->DateToUpdate.Date = day;
 455              		.loc 1 1635 0
 456 00a0 E1B2     		uxtb	r1, r4
 457 00a2 7973     		strb	r1, [r7, #13]
1636:Drivers/STM32F1xx_HAL_Driver/Src/stm32f1xx_hal_rtc.c **** 
 458              		.loc 1 1636 0
 459 00a4 EAB2     		uxtb	r2, r5
 460 00a6 BA73     		strb	r2, [r7, #14]
1639:Drivers/STM32F1xx_HAL_Driver/Src/stm32f1xx_hal_rtc.c **** }
 461              		.loc 1 1639 0
 462 00a8 4846     		mov	r0, r9
 463 00aa FFF7FEFF 		bl	RTC_WeekDayNum
 464              	.LVL57:
 465 00ae 3873     		strb	r0, [r7, #12]
1640:Drivers/STM32F1xx_HAL_Driver/Src/stm32f1xx_hal_rtc.c **** 
 466              		.loc 1 1640 0
 467 00b0 BDE8F883 		pop	{r3, r4, r5, r6, r7, r8, r9, pc}
 468              		.cfi_endproc
 469              	.LFE91:
 471              		.section	.text.RTC_EnterInitMode,"ax",%progbits
 472              		.align	1
 473              		.syntax unified
 474              		.thumb
 475              		.thumb_func
 476              		.fpu softvfp
 478              	RTC_EnterInitMode:
 479              	.LFB87:
1470:Drivers/STM32F1xx_HAL_Driver/Src/stm32f1xx_hal_rtc.c ****   uint32_t tickstart = 0U;
 480              		.loc 1 1470 0
 481              		.cfi_startproc
ARM GAS  /tmp/cc2ffejw.s 			page 40


 482              		@ args = 0, pretend = 0, frame = 0
 483              		@ frame_needed = 0, uses_anonymous_args = 0
 484              	.LVL58:
 485 0000 38B5     		push	{r3, r4, r5, lr}
 486              	.LCFI4:
 487              		.cfi_def_cfa_offset 16
 488              		.cfi_offset 3, -16
 489              		.cfi_offset 4, -12
 490              		.cfi_offset 5, -8
 491              		.cfi_offset 14, -4
 492 0002 0446     		mov	r4, r0
 493              	.LVL59:
1473:Drivers/STM32F1xx_HAL_Driver/Src/stm32f1xx_hal_rtc.c ****   /* Wait till RTC is in INIT state and if Time out is reached exit */
 494              		.loc 1 1473 0
 495 0004 FFF7FEFF 		bl	HAL_GetTick
 496              	.LVL60:
 497 0008 0546     		mov	r5, r0
 498              	.LVL61:
 499              	.L39:
1475:Drivers/STM32F1xx_HAL_Driver/Src/stm32f1xx_hal_rtc.c ****   {
 500              		.loc 1 1475 0
 501 000a 2368     		ldr	r3, [r4]
 502 000c 5A68     		ldr	r2, [r3, #4]
 503 000e 12F0200F 		tst	r2, #32
 504 0012 07D1     		bne	.L44
1477:Drivers/STM32F1xx_HAL_Driver/Src/stm32f1xx_hal_rtc.c ****     {       
 505              		.loc 1 1477 0
 506 0014 FFF7FEFF 		bl	HAL_GetTick
 507              	.LVL62:
 508 0018 401B     		subs	r0, r0, r5
 509 001a B0F57A7F 		cmp	r0, #1000
 510 001e F4D9     		bls	.L39
1479:Drivers/STM32F1xx_HAL_Driver/Src/stm32f1xx_hal_rtc.c ****     } 
 511              		.loc 1 1479 0
 512 0020 0320     		movs	r0, #3
 513 0022 04E0     		b	.L40
 514              	.L44:
1484:Drivers/STM32F1xx_HAL_Driver/Src/stm32f1xx_hal_rtc.c ****   
 515              		.loc 1 1484 0
 516 0024 5A68     		ldr	r2, [r3, #4]
 517 0026 42F01002 		orr	r2, r2, #16
 518 002a 5A60     		str	r2, [r3, #4]
1487:Drivers/STM32F1xx_HAL_Driver/Src/stm32f1xx_hal_rtc.c **** }
 519              		.loc 1 1487 0
 520 002c 0020     		movs	r0, #0
 521              	.L40:
1488:Drivers/STM32F1xx_HAL_Driver/Src/stm32f1xx_hal_rtc.c **** 
 522              		.loc 1 1488 0
 523 002e 38BD     		pop	{r3, r4, r5, pc}
 524              		.cfi_endproc
 525              	.LFE87:
 527              		.section	.text.RTC_ExitInitMode,"ax",%progbits
 528              		.align	1
 529              		.syntax unified
 530              		.thumb
 531              		.thumb_func
 532              		.fpu softvfp
ARM GAS  /tmp/cc2ffejw.s 			page 41


 534              	RTC_ExitInitMode:
 535              	.LFB88:
1497:Drivers/STM32F1xx_HAL_Driver/Src/stm32f1xx_hal_rtc.c ****   uint32_t tickstart = 0U;
 536              		.loc 1 1497 0
 537              		.cfi_startproc
 538              		@ args = 0, pretend = 0, frame = 0
 539              		@ frame_needed = 0, uses_anonymous_args = 0
 540              	.LVL63:
 541 0000 38B5     		push	{r3, r4, r5, lr}
 542              	.LCFI5:
 543              		.cfi_def_cfa_offset 16
 544              		.cfi_offset 3, -16
 545              		.cfi_offset 4, -12
 546              		.cfi_offset 5, -8
 547              		.cfi_offset 14, -4
 548 0002 0446     		mov	r4, r0
 549              	.LVL64:
1501:Drivers/STM32F1xx_HAL_Driver/Src/stm32f1xx_hal_rtc.c ****   
 550              		.loc 1 1501 0
 551 0004 0268     		ldr	r2, [r0]
 552 0006 5368     		ldr	r3, [r2, #4]
 553 0008 23F01003 		bic	r3, r3, #16
 554 000c 5360     		str	r3, [r2, #4]
1503:Drivers/STM32F1xx_HAL_Driver/Src/stm32f1xx_hal_rtc.c ****   /* Wait till RTC is in INIT state and if Time out is reached exit */
 555              		.loc 1 1503 0
 556 000e FFF7FEFF 		bl	HAL_GetTick
 557              	.LVL65:
 558 0012 0546     		mov	r5, r0
 559              	.LVL66:
 560              	.L46:
1505:Drivers/STM32F1xx_HAL_Driver/Src/stm32f1xx_hal_rtc.c ****   {
 561              		.loc 1 1505 0
 562 0014 2368     		ldr	r3, [r4]
 563 0016 5B68     		ldr	r3, [r3, #4]
 564 0018 13F0200F 		tst	r3, #32
 565 001c 07D1     		bne	.L51
1507:Drivers/STM32F1xx_HAL_Driver/Src/stm32f1xx_hal_rtc.c ****     {       
 566              		.loc 1 1507 0
 567 001e FFF7FEFF 		bl	HAL_GetTick
 568              	.LVL67:
 569 0022 401B     		subs	r0, r0, r5
 570 0024 B0F57A7F 		cmp	r0, #1000
 571 0028 F4D9     		bls	.L46
1509:Drivers/STM32F1xx_HAL_Driver/Src/stm32f1xx_hal_rtc.c ****     } 
 572              		.loc 1 1509 0
 573 002a 0320     		movs	r0, #3
 574 002c 00E0     		b	.L47
 575              	.L51:
1513:Drivers/STM32F1xx_HAL_Driver/Src/stm32f1xx_hal_rtc.c **** }
 576              		.loc 1 1513 0
 577 002e 0020     		movs	r0, #0
 578              	.L47:
1514:Drivers/STM32F1xx_HAL_Driver/Src/stm32f1xx_hal_rtc.c **** 
 579              		.loc 1 1514 0
 580 0030 38BD     		pop	{r3, r4, r5, pc}
 581              		.cfi_endproc
 582              	.LFE88:
ARM GAS  /tmp/cc2ffejw.s 			page 42


 584              		.section	.text.RTC_WriteTimeCounter,"ax",%progbits
 585              		.align	1
 586              		.syntax unified
 587              		.thumb
 588              		.thumb_func
 589              		.fpu softvfp
 591              	RTC_WriteTimeCounter:
 592              	.LFB84:
1389:Drivers/STM32F1xx_HAL_Driver/Src/stm32f1xx_hal_rtc.c ****   HAL_StatusTypeDef status = HAL_OK;
 593              		.loc 1 1389 0
 594              		.cfi_startproc
 595              		@ args = 0, pretend = 0, frame = 0
 596              		@ frame_needed = 0, uses_anonymous_args = 0
 597              	.LVL68:
 598 0000 38B5     		push	{r3, r4, r5, lr}
 599              	.LCFI6:
 600              		.cfi_def_cfa_offset 16
 601              		.cfi_offset 3, -16
 602              		.cfi_offset 4, -12
 603              		.cfi_offset 5, -8
 604              		.cfi_offset 14, -4
 605 0002 0546     		mov	r5, r0
 606 0004 0C46     		mov	r4, r1
 607              	.LVL69:
1393:Drivers/STM32F1xx_HAL_Driver/Src/stm32f1xx_hal_rtc.c ****   {
 608              		.loc 1 1393 0
 609 0006 FFF7FEFF 		bl	RTC_EnterInitMode
 610              	.LVL70:
 611 000a 10B1     		cbz	r0, .L57
1395:Drivers/STM32F1xx_HAL_Driver/Src/stm32f1xx_hal_rtc.c ****   } 
 612              		.loc 1 1395 0
 613 000c 0123     		movs	r3, #1
 614              	.LVL71:
 615              	.L53:
1412:Drivers/STM32F1xx_HAL_Driver/Src/stm32f1xx_hal_rtc.c **** 
 616              		.loc 1 1412 0
 617 000e 1846     		mov	r0, r3
 618 0010 38BD     		pop	{r3, r4, r5, pc}
 619              	.LVL72:
 620              	.L57:
1400:Drivers/STM32F1xx_HAL_Driver/Src/stm32f1xx_hal_rtc.c ****     /* Set RTC COUNTER LSB word */
 621              		.loc 1 1400 0
 622 0012 2B68     		ldr	r3, [r5]
 623 0014 220C     		lsrs	r2, r4, #16
 624 0016 9A61     		str	r2, [r3, #24]
1402:Drivers/STM32F1xx_HAL_Driver/Src/stm32f1xx_hal_rtc.c ****     
 625              		.loc 1 1402 0
 626 0018 2B68     		ldr	r3, [r5]
 627 001a A4B2     		uxth	r4, r4
 628              	.LVL73:
 629 001c DC61     		str	r4, [r3, #28]
1405:Drivers/STM32F1xx_HAL_Driver/Src/stm32f1xx_hal_rtc.c ****     {       
 630              		.loc 1 1405 0
 631 001e 2846     		mov	r0, r5
 632 0020 FFF7FEFF 		bl	RTC_ExitInitMode
 633              	.LVL74:
 634 0024 0346     		mov	r3, r0
ARM GAS  /tmp/cc2ffejw.s 			page 43


 635 0026 0028     		cmp	r0, #0
 636 0028 F1D0     		beq	.L53
1407:Drivers/STM32F1xx_HAL_Driver/Src/stm32f1xx_hal_rtc.c ****     }
 637              		.loc 1 1407 0
 638 002a 0123     		movs	r3, #1
 639 002c EFE7     		b	.L53
 640              		.cfi_endproc
 641              	.LFE84:
 643              		.section	.text.RTC_WriteAlarmCounter,"ax",%progbits
 644              		.align	1
 645              		.syntax unified
 646              		.thumb
 647              		.thumb_func
 648              		.fpu softvfp
 650              	RTC_WriteAlarmCounter:
 651              	.LFB86:
1438:Drivers/STM32F1xx_HAL_Driver/Src/stm32f1xx_hal_rtc.c ****   HAL_StatusTypeDef status = HAL_OK;
 652              		.loc 1 1438 0
 653              		.cfi_startproc
 654              		@ args = 0, pretend = 0, frame = 0
 655              		@ frame_needed = 0, uses_anonymous_args = 0
 656              	.LVL75:
 657 0000 38B5     		push	{r3, r4, r5, lr}
 658              	.LCFI7:
 659              		.cfi_def_cfa_offset 16
 660              		.cfi_offset 3, -16
 661              		.cfi_offset 4, -12
 662              		.cfi_offset 5, -8
 663              		.cfi_offset 14, -4
 664 0002 0546     		mov	r5, r0
 665 0004 0C46     		mov	r4, r1
 666              	.LVL76:
1442:Drivers/STM32F1xx_HAL_Driver/Src/stm32f1xx_hal_rtc.c ****   {
 667              		.loc 1 1442 0
 668 0006 FFF7FEFF 		bl	RTC_EnterInitMode
 669              	.LVL77:
 670 000a 10B1     		cbz	r0, .L63
1444:Drivers/STM32F1xx_HAL_Driver/Src/stm32f1xx_hal_rtc.c ****   } 
 671              		.loc 1 1444 0
 672 000c 0123     		movs	r3, #1
 673              	.LVL78:
 674              	.L59:
1461:Drivers/STM32F1xx_HAL_Driver/Src/stm32f1xx_hal_rtc.c **** 
 675              		.loc 1 1461 0
 676 000e 1846     		mov	r0, r3
 677 0010 38BD     		pop	{r3, r4, r5, pc}
 678              	.LVL79:
 679              	.L63:
1449:Drivers/STM32F1xx_HAL_Driver/Src/stm32f1xx_hal_rtc.c ****     /* Set RTC COUNTER LSB word */
 680              		.loc 1 1449 0
 681 0012 2B68     		ldr	r3, [r5]
 682 0014 220C     		lsrs	r2, r4, #16
 683 0016 1A62     		str	r2, [r3, #32]
1451:Drivers/STM32F1xx_HAL_Driver/Src/stm32f1xx_hal_rtc.c ****     
 684              		.loc 1 1451 0
 685 0018 2B68     		ldr	r3, [r5]
 686 001a A4B2     		uxth	r4, r4
ARM GAS  /tmp/cc2ffejw.s 			page 44


 687              	.LVL80:
 688 001c 5C62     		str	r4, [r3, #36]
1454:Drivers/STM32F1xx_HAL_Driver/Src/stm32f1xx_hal_rtc.c ****     {       
 689              		.loc 1 1454 0
 690 001e 2846     		mov	r0, r5
 691 0020 FFF7FEFF 		bl	RTC_ExitInitMode
 692              	.LVL81:
 693 0024 0346     		mov	r3, r0
 694 0026 0028     		cmp	r0, #0
 695 0028 F1D0     		beq	.L59
1456:Drivers/STM32F1xx_HAL_Driver/Src/stm32f1xx_hal_rtc.c ****     }
 696              		.loc 1 1456 0
 697 002a 0123     		movs	r3, #1
 698 002c EFE7     		b	.L59
 699              		.cfi_endproc
 700              	.LFE86:
 702              		.section	.text.HAL_RTC_MspInit,"ax",%progbits
 703              		.align	1
 704              		.weak	HAL_RTC_MspInit
 705              		.syntax unified
 706              		.thumb
 707              		.thumb_func
 708              		.fpu softvfp
 710              	HAL_RTC_MspInit:
 711              	.LFB68:
 426:Drivers/STM32F1xx_HAL_Driver/Src/stm32f1xx_hal_rtc.c ****   /* Prevent unused argument(s) compilation warning */
 712              		.loc 1 426 0
 713              		.cfi_startproc
 714              		@ args = 0, pretend = 0, frame = 0
 715              		@ frame_needed = 0, uses_anonymous_args = 0
 716              		@ link register save eliminated.
 717              	.LVL82:
 432:Drivers/STM32F1xx_HAL_Driver/Src/stm32f1xx_hal_rtc.c **** 
 718              		.loc 1 432 0
 719 0000 7047     		bx	lr
 720              		.cfi_endproc
 721              	.LFE68:
 723              		.section	.text.HAL_RTC_MspDeInit,"ax",%progbits
 724              		.align	1
 725              		.weak	HAL_RTC_MspDeInit
 726              		.syntax unified
 727              		.thumb
 728              		.thumb_func
 729              		.fpu softvfp
 731              	HAL_RTC_MspDeInit:
 732              	.LFB69:
 441:Drivers/STM32F1xx_HAL_Driver/Src/stm32f1xx_hal_rtc.c ****   /* Prevent unused argument(s) compilation warning */
 733              		.loc 1 441 0
 734              		.cfi_startproc
 735              		@ args = 0, pretend = 0, frame = 0
 736              		@ frame_needed = 0, uses_anonymous_args = 0
 737              		@ link register save eliminated.
 738              	.LVL83:
 447:Drivers/STM32F1xx_HAL_Driver/Src/stm32f1xx_hal_rtc.c **** 
 739              		.loc 1 447 0
 740 0000 7047     		bx	lr
 741              		.cfi_endproc
ARM GAS  /tmp/cc2ffejw.s 			page 45


 742              	.LFE69:
 744              		.section	.text.HAL_RTC_SetTime,"ax",%progbits
 745              		.align	1
 746              		.global	HAL_RTC_SetTime
 747              		.syntax unified
 748              		.thumb
 749              		.thumb_func
 750              		.fpu softvfp
 752              	HAL_RTC_SetTime:
 753              	.LFB70:
 479:Drivers/STM32F1xx_HAL_Driver/Src/stm32f1xx_hal_rtc.c ****   uint32_t counter_time = 0U, counter_alarm = 0U;
 754              		.loc 1 479 0
 755              		.cfi_startproc
 756              		@ args = 0, pretend = 0, frame = 0
 757              		@ frame_needed = 0, uses_anonymous_args = 0
 758              	.LVL84:
 759 0000 70B5     		push	{r4, r5, r6, lr}
 760              	.LCFI8:
 761              		.cfi_def_cfa_offset 16
 762              		.cfi_offset 4, -16
 763              		.cfi_offset 5, -12
 764              		.cfi_offset 6, -8
 765              		.cfi_offset 14, -4
 766              	.LVL85:
 483:Drivers/STM32F1xx_HAL_Driver/Src/stm32f1xx_hal_rtc.c ****   {
 767              		.loc 1 483 0
 768 0002 0028     		cmp	r0, #0
 769 0004 57D0     		beq	.L72
 770 0006 0446     		mov	r4, r0
 483:Drivers/STM32F1xx_HAL_Driver/Src/stm32f1xx_hal_rtc.c ****   {
 771              		.loc 1 483 0 is_stmt 0 discriminator 1
 772 0008 0029     		cmp	r1, #0
 773 000a 56D0     		beq	.L73
 492:Drivers/STM32F1xx_HAL_Driver/Src/stm32f1xx_hal_rtc.c ****   
 774              		.loc 1 492 0 is_stmt 1
 775 000c 037C     		ldrb	r3, [r0, #16]	@ zero_extendqisi2
 776 000e 012B     		cmp	r3, #1
 777 0010 55D0     		beq	.L74
 778 0012 0E46     		mov	r6, r1
 492:Drivers/STM32F1xx_HAL_Driver/Src/stm32f1xx_hal_rtc.c ****   
 779              		.loc 1 492 0 is_stmt 0 discriminator 2
 780 0014 0123     		movs	r3, #1
 781 0016 0374     		strb	r3, [r0, #16]
 494:Drivers/STM32F1xx_HAL_Driver/Src/stm32f1xx_hal_rtc.c ****   
 782              		.loc 1 494 0 is_stmt 1 discriminator 2
 783 0018 0223     		movs	r3, #2
 784 001a 4374     		strb	r3, [r0, #17]
 496:Drivers/STM32F1xx_HAL_Driver/Src/stm32f1xx_hal_rtc.c ****   {
 785              		.loc 1 496 0 discriminator 2
 786 001c BAB9     		cbnz	r2, .L68
 502:Drivers/STM32F1xx_HAL_Driver/Src/stm32f1xx_hal_rtc.c ****                         ((uint32_t)sTime->Minutes * 60U) + \
 787              		.loc 1 502 0
 788 001e 0D78     		ldrb	r5, [r1]	@ zero_extendqisi2
 503:Drivers/STM32F1xx_HAL_Driver/Src/stm32f1xx_hal_rtc.c ****                         ((uint32_t)sTime->Seconds));  
 789              		.loc 1 503 0
 790 0020 4B78     		ldrb	r3, [r1, #1]	@ zero_extendqisi2
 791 0022 C3EB0313 		rsb	r3, r3, r3, lsl #4
ARM GAS  /tmp/cc2ffejw.s 			page 46


 792 0026 9A00     		lsls	r2, r3, #2
 793              	.LVL86:
 502:Drivers/STM32F1xx_HAL_Driver/Src/stm32f1xx_hal_rtc.c ****                         ((uint32_t)sTime->Minutes * 60U) + \
 794              		.loc 1 502 0
 795 0028 4FF46163 		mov	r3, #3600
 796 002c 03FB0525 		mla	r5, r3, r5, r2
 504:Drivers/STM32F1xx_HAL_Driver/Src/stm32f1xx_hal_rtc.c ****   }
 797              		.loc 1 504 0
 798 0030 8B78     		ldrb	r3, [r1, #2]	@ zero_extendqisi2
 502:Drivers/STM32F1xx_HAL_Driver/Src/stm32f1xx_hal_rtc.c ****                         ((uint32_t)sTime->Minutes * 60U) + \
 799              		.loc 1 502 0
 800 0032 1D44     		add	r5, r5, r3
 801              	.LVL87:
 802              	.L69:
 518:Drivers/STM32F1xx_HAL_Driver/Src/stm32f1xx_hal_rtc.c ****   {
 803              		.loc 1 518 0
 804 0034 2946     		mov	r1, r5
 805 0036 2046     		mov	r0, r4
 806 0038 FFF7FEFF 		bl	RTC_WriteTimeCounter
 807              	.LVL88:
 808 003c 0646     		mov	r6, r0
 809              	.LVL89:
 810 003e C8B1     		cbz	r0, .L70
 521:Drivers/STM32F1xx_HAL_Driver/Src/stm32f1xx_hal_rtc.c ****     
 811              		.loc 1 521 0
 812 0040 0423     		movs	r3, #4
 813 0042 6374     		strb	r3, [r4, #17]
 524:Drivers/STM32F1xx_HAL_Driver/Src/stm32f1xx_hal_rtc.c ****     
 814              		.loc 1 524 0
 815 0044 0023     		movs	r3, #0
 816 0046 2374     		strb	r3, [r4, #16]
 526:Drivers/STM32F1xx_HAL_Driver/Src/stm32f1xx_hal_rtc.c ****   }
 817              		.loc 1 526 0
 818 0048 0126     		movs	r6, #1
 819              	.LVL90:
 820              	.L67:
 564:Drivers/STM32F1xx_HAL_Driver/Src/stm32f1xx_hal_rtc.c **** 
 821              		.loc 1 564 0
 822 004a 3046     		mov	r0, r6
 823 004c 70BD     		pop	{r4, r5, r6, pc}
 824              	.LVL91:
 825              	.L68:
 512:Drivers/STM32F1xx_HAL_Driver/Src/stm32f1xx_hal_rtc.c ****               ((uint32_t)(RTC_Bcd2ToByte(sTime->Minutes)) * 60U) + \
 826              		.loc 1 512 0
 827 004e 0878     		ldrb	r0, [r1]	@ zero_extendqisi2
 828              	.LVL92:
 829 0050 FFF7FEFF 		bl	RTC_Bcd2ToByte
 830              	.LVL93:
 831 0054 4FF46165 		mov	r5, #3600
 832 0058 05FB00F5 		mul	r5, r5, r0
 513:Drivers/STM32F1xx_HAL_Driver/Src/stm32f1xx_hal_rtc.c ****               ((uint32_t)(RTC_Bcd2ToByte(sTime->Seconds))));   
 833              		.loc 1 513 0
 834 005c 7078     		ldrb	r0, [r6, #1]	@ zero_extendqisi2
 835 005e FFF7FEFF 		bl	RTC_Bcd2ToByte
 836              	.LVL94:
 837 0062 C0EB0010 		rsb	r0, r0, r0, lsl #4
 838 0066 8300     		lsls	r3, r0, #2
ARM GAS  /tmp/cc2ffejw.s 			page 47


 512:Drivers/STM32F1xx_HAL_Driver/Src/stm32f1xx_hal_rtc.c ****               ((uint32_t)(RTC_Bcd2ToByte(sTime->Minutes)) * 60U) + \
 839              		.loc 1 512 0
 840 0068 1D44     		add	r5, r5, r3
 514:Drivers/STM32F1xx_HAL_Driver/Src/stm32f1xx_hal_rtc.c ****   }
 841              		.loc 1 514 0
 842 006a B078     		ldrb	r0, [r6, #2]	@ zero_extendqisi2
 843 006c FFF7FEFF 		bl	RTC_Bcd2ToByte
 844              	.LVL95:
 512:Drivers/STM32F1xx_HAL_Driver/Src/stm32f1xx_hal_rtc.c ****               ((uint32_t)(RTC_Bcd2ToByte(sTime->Minutes)) * 60U) + \
 845              		.loc 1 512 0
 846 0070 0544     		add	r5, r5, r0
 847              	.LVL96:
 848 0072 DFE7     		b	.L69
 849              	.LVL97:
 850              	.L70:
 531:Drivers/STM32F1xx_HAL_Driver/Src/stm32f1xx_hal_rtc.c ****     
 851              		.loc 1 531 0
 852 0074 2268     		ldr	r2, [r4]
 853 0076 5368     		ldr	r3, [r2, #4]
 854 0078 23F00503 		bic	r3, r3, #5
 855 007c 5360     		str	r3, [r2, #4]
 534:Drivers/STM32F1xx_HAL_Driver/Src/stm32f1xx_hal_rtc.c **** 
 856              		.loc 1 534 0
 857 007e 2046     		mov	r0, r4
 858 0080 FFF7FEFF 		bl	RTC_ReadAlarmCounter
 859              	.LVL98:
 537:Drivers/STM32F1xx_HAL_Driver/Src/stm32f1xx_hal_rtc.c ****     {
 860              		.loc 1 537 0
 861 0084 B0F1FF3F 		cmp	r0, #-1
 862 0088 01D0     		beq	.L71
 539:Drivers/STM32F1xx_HAL_Driver/Src/stm32f1xx_hal_rtc.c ****       {
 863              		.loc 1 539 0
 864 008a 8542     		cmp	r5, r0
 865 008c 04D8     		bhi	.L76
 866              	.LVL99:
 867              	.L71:
 558:Drivers/STM32F1xx_HAL_Driver/Src/stm32f1xx_hal_rtc.c ****   
 868              		.loc 1 558 0
 869 008e 0123     		movs	r3, #1
 870 0090 6374     		strb	r3, [r4, #17]
 560:Drivers/STM32F1xx_HAL_Driver/Src/stm32f1xx_hal_rtc.c ****      
 871              		.loc 1 560 0
 872 0092 0023     		movs	r3, #0
 873 0094 2374     		strb	r3, [r4, #16]
 562:Drivers/STM32F1xx_HAL_Driver/Src/stm32f1xx_hal_rtc.c ****   }
 874              		.loc 1 562 0
 875 0096 D8E7     		b	.L67
 876              	.LVL100:
 877              	.L76:
 545:Drivers/STM32F1xx_HAL_Driver/Src/stm32f1xx_hal_rtc.c ****         {
 878              		.loc 1 545 0
 879 0098 00F5A831 		add	r1, r0, #86016
 880 009c 01F5C071 		add	r1, r1, #384
 881 00a0 2046     		mov	r0, r4
 882              	.LVL101:
 883 00a2 FFF7FEFF 		bl	RTC_WriteAlarmCounter
 884              	.LVL102:
ARM GAS  /tmp/cc2ffejw.s 			page 48


 885 00a6 0028     		cmp	r0, #0
 886 00a8 F1D0     		beq	.L71
 548:Drivers/STM32F1xx_HAL_Driver/Src/stm32f1xx_hal_rtc.c ****           
 887              		.loc 1 548 0
 888 00aa 0423     		movs	r3, #4
 889 00ac 6374     		strb	r3, [r4, #17]
 551:Drivers/STM32F1xx_HAL_Driver/Src/stm32f1xx_hal_rtc.c ****           
 890              		.loc 1 551 0
 891 00ae 0023     		movs	r3, #0
 892 00b0 2374     		strb	r3, [r4, #16]
 553:Drivers/STM32F1xx_HAL_Driver/Src/stm32f1xx_hal_rtc.c ****         }
 893              		.loc 1 553 0
 894 00b2 0126     		movs	r6, #1
 895 00b4 C9E7     		b	.L67
 896              	.LVL103:
 897              	.L72:
 485:Drivers/STM32F1xx_HAL_Driver/Src/stm32f1xx_hal_rtc.c ****   }
 898              		.loc 1 485 0
 899 00b6 0126     		movs	r6, #1
 900 00b8 C7E7     		b	.L67
 901              	.L73:
 902 00ba 0126     		movs	r6, #1
 903 00bc C5E7     		b	.L67
 904              	.L74:
 492:Drivers/STM32F1xx_HAL_Driver/Src/stm32f1xx_hal_rtc.c ****   
 905              		.loc 1 492 0
 906 00be 0226     		movs	r6, #2
 907 00c0 C3E7     		b	.L67
 908              		.cfi_endproc
 909              	.LFE70:
 911              		.section	.text.HAL_RTC_GetAlarm,"ax",%progbits
 912              		.align	1
 913              		.global	HAL_RTC_GetAlarm
 914              		.syntax unified
 915              		.thumb
 916              		.thumb_func
 917              		.fpu softvfp
 919              	HAL_RTC_GetAlarm:
 920              	.LFB76:
1065:Drivers/STM32F1xx_HAL_Driver/Src/stm32f1xx_hal_rtc.c ****   uint32_t counter_alarm = 0U;
 921              		.loc 1 1065 0
 922              		.cfi_startproc
 923              		@ args = 0, pretend = 0, frame = 0
 924              		@ frame_needed = 0, uses_anonymous_args = 0
 925              	.LVL104:
1072:Drivers/STM32F1xx_HAL_Driver/Src/stm32f1xx_hal_rtc.c ****   {
 926              		.loc 1 1072 0
 927 0000 90B3     		cbz	r0, .L79
1072:Drivers/STM32F1xx_HAL_Driver/Src/stm32f1xx_hal_rtc.c ****   {
 928              		.loc 1 1072 0 is_stmt 0 discriminator 1
 929 0002 99B3     		cbz	r1, .L80
1065:Drivers/STM32F1xx_HAL_Driver/Src/stm32f1xx_hal_rtc.c ****   uint32_t counter_alarm = 0U;
 930              		.loc 1 1065 0 is_stmt 1
 931 0004 F8B5     		push	{r3, r4, r5, r6, r7, lr}
 932              	.LCFI9:
 933              		.cfi_def_cfa_offset 24
 934              		.cfi_offset 3, -24
ARM GAS  /tmp/cc2ffejw.s 			page 49


 935              		.cfi_offset 4, -20
 936              		.cfi_offset 5, -16
 937              		.cfi_offset 6, -12
 938              		.cfi_offset 7, -8
 939              		.cfi_offset 14, -4
 940 0006 1D46     		mov	r5, r3
 941 0008 0C46     		mov	r4, r1
1082:Drivers/STM32F1xx_HAL_Driver/Src/stm32f1xx_hal_rtc.c **** 
 942              		.loc 1 1082 0
 943 000a FFF7FEFF 		bl	RTC_ReadAlarmCounter
 944              	.LVL105:
1086:Drivers/STM32F1xx_HAL_Driver/Src/stm32f1xx_hal_rtc.c ****   sAlarm->AlarmTime.Minutes = (uint32_t)((counter_alarm % 3600U) / 60U);
 945              		.loc 1 1086 0
 946 000e 1949     		ldr	r1, .L86
 947 0010 A1FB0031 		umull	r3, r1, r1, r0
 948 0014 C90A     		lsrs	r1, r1, #11
 949 0016 184A     		ldr	r2, .L86+4
 950 0018 A2FB0132 		umull	r3, r2, r2, r1
 951 001c 1209     		lsrs	r2, r2, #4
 952 001e 02EB4202 		add	r2, r2, r2, lsl #1
 953 0022 D300     		lsls	r3, r2, #3
 954 0024 CA1A     		subs	r2, r1, r3
 955 0026 D3B2     		uxtb	r3, r2
 956 0028 2370     		strb	r3, [r4]
1087:Drivers/STM32F1xx_HAL_Driver/Src/stm32f1xx_hal_rtc.c ****   sAlarm->AlarmTime.Seconds = (uint32_t)((counter_alarm % 3600U) % 60U);
 957              		.loc 1 1087 0
 958 002a 4FF46167 		mov	r7, #3600
 959 002e 07FB1107 		mls	r7, r7, r1, r0
 960 0032 124A     		ldr	r2, .L86+8
 961 0034 A2FB0712 		umull	r1, r2, r2, r7
 962 0038 5209     		lsrs	r2, r2, #5
 963 003a D6B2     		uxtb	r6, r2
 964 003c 6670     		strb	r6, [r4, #1]
1088:Drivers/STM32F1xx_HAL_Driver/Src/stm32f1xx_hal_rtc.c ****   
 965              		.loc 1 1088 0
 966 003e C2EB0212 		rsb	r2, r2, r2, lsl #4
 967 0042 9000     		lsls	r0, r2, #2
 968              	.LVL106:
 969 0044 381A     		subs	r0, r7, r0
 970 0046 C7B2     		uxtb	r7, r0
 971 0048 A770     		strb	r7, [r4, #2]
1090:Drivers/STM32F1xx_HAL_Driver/Src/stm32f1xx_hal_rtc.c ****   {
 972              		.loc 1 1090 0
 973 004a 8DB1     		cbz	r5, .L81
1092:Drivers/STM32F1xx_HAL_Driver/Src/stm32f1xx_hal_rtc.c ****     sAlarm->AlarmTime.Minutes = RTC_ByteToBcd2(sAlarm->AlarmTime.Minutes);
 974              		.loc 1 1092 0
 975 004c 1846     		mov	r0, r3
 976 004e FFF7FEFF 		bl	RTC_ByteToBcd2
 977              	.LVL107:
 978 0052 2070     		strb	r0, [r4]
1093:Drivers/STM32F1xx_HAL_Driver/Src/stm32f1xx_hal_rtc.c ****     sAlarm->AlarmTime.Seconds = RTC_ByteToBcd2(sAlarm->AlarmTime.Seconds);
 979              		.loc 1 1093 0
 980 0054 3046     		mov	r0, r6
 981 0056 FFF7FEFF 		bl	RTC_ByteToBcd2
 982              	.LVL108:
 983 005a 6070     		strb	r0, [r4, #1]
1094:Drivers/STM32F1xx_HAL_Driver/Src/stm32f1xx_hal_rtc.c ****   }  
ARM GAS  /tmp/cc2ffejw.s 			page 50


 984              		.loc 1 1094 0
 985 005c 3846     		mov	r0, r7
 986 005e FFF7FEFF 		bl	RTC_ByteToBcd2
 987              	.LVL109:
 988 0062 A070     		strb	r0, [r4, #2]
1097:Drivers/STM32F1xx_HAL_Driver/Src/stm32f1xx_hal_rtc.c **** }
 989              		.loc 1 1097 0
 990 0064 0020     		movs	r0, #0
 991              	.L78:
1098:Drivers/STM32F1xx_HAL_Driver/Src/stm32f1xx_hal_rtc.c **** 
 992              		.loc 1 1098 0
 993 0066 F8BD     		pop	{r3, r4, r5, r6, r7, pc}
 994              	.LVL110:
 995              	.L79:
 996              	.LCFI10:
 997              		.cfi_def_cfa_offset 0
 998              		.cfi_restore 3
 999              		.cfi_restore 4
 1000              		.cfi_restore 5
 1001              		.cfi_restore 6
 1002              		.cfi_restore 7
 1003              		.cfi_restore 14
1074:Drivers/STM32F1xx_HAL_Driver/Src/stm32f1xx_hal_rtc.c ****   }
 1004              		.loc 1 1074 0
 1005 0068 0120     		movs	r0, #1
 1006              	.LVL111:
 1007 006a 7047     		bx	lr
 1008              	.LVL112:
 1009              	.L80:
 1010 006c 0120     		movs	r0, #1
 1011              	.LVL113:
1098:Drivers/STM32F1xx_HAL_Driver/Src/stm32f1xx_hal_rtc.c **** 
 1012              		.loc 1 1098 0
 1013 006e 7047     		bx	lr
 1014              	.LVL114:
 1015              	.L81:
 1016              	.LCFI11:
 1017              		.cfi_def_cfa_offset 24
 1018              		.cfi_offset 3, -24
 1019              		.cfi_offset 4, -20
 1020              		.cfi_offset 5, -16
 1021              		.cfi_offset 6, -12
 1022              		.cfi_offset 7, -8
 1023              		.cfi_offset 14, -4
1097:Drivers/STM32F1xx_HAL_Driver/Src/stm32f1xx_hal_rtc.c **** }
 1024              		.loc 1 1097 0
 1025 0070 0020     		movs	r0, #0
 1026 0072 F8E7     		b	.L78
 1027              	.L87:
 1028              		.align	2
 1029              	.L86:
 1030 0074 C5B3A291 		.word	-1851608123
 1031 0078 ABAAAAAA 		.word	-1431655765
 1032 007c 89888888 		.word	-2004318071
 1033              		.cfi_endproc
 1034              	.LFE76:
 1036              		.section	.text.HAL_RTC_DeactivateAlarm,"ax",%progbits
ARM GAS  /tmp/cc2ffejw.s 			page 51


 1037              		.align	1
 1038              		.global	HAL_RTC_DeactivateAlarm
 1039              		.syntax unified
 1040              		.thumb
 1041              		.thumb_func
 1042              		.fpu softvfp
 1044              	HAL_RTC_DeactivateAlarm:
 1045              	.LFB77:
1110:Drivers/STM32F1xx_HAL_Driver/Src/stm32f1xx_hal_rtc.c ****   /* Prevent unused argument(s) compilation warning */
 1046              		.loc 1 1110 0
 1047              		.cfi_startproc
 1048              		@ args = 0, pretend = 0, frame = 0
 1049              		@ frame_needed = 0, uses_anonymous_args = 0
 1050              	.LVL115:
1118:Drivers/STM32F1xx_HAL_Driver/Src/stm32f1xx_hal_rtc.c ****   {
 1051              		.loc 1 1118 0
 1052 0000 0028     		cmp	r0, #0
 1053 0002 36D0     		beq	.L92
1110:Drivers/STM32F1xx_HAL_Driver/Src/stm32f1xx_hal_rtc.c ****   /* Prevent unused argument(s) compilation warning */
 1054              		.loc 1 1110 0
 1055 0004 10B5     		push	{r4, lr}
 1056              	.LCFI12:
 1057              		.cfi_def_cfa_offset 8
 1058              		.cfi_offset 4, -8
 1059              		.cfi_offset 14, -4
 1060 0006 0446     		mov	r4, r0
1124:Drivers/STM32F1xx_HAL_Driver/Src/stm32f1xx_hal_rtc.c ****   
 1061              		.loc 1 1124 0
 1062 0008 037C     		ldrb	r3, [r0, #16]	@ zero_extendqisi2
 1063 000a 012B     		cmp	r3, #1
 1064 000c 34D0     		beq	.L93
1124:Drivers/STM32F1xx_HAL_Driver/Src/stm32f1xx_hal_rtc.c ****   
 1065              		.loc 1 1124 0 is_stmt 0 discriminator 2
 1066 000e 0123     		movs	r3, #1
 1067 0010 0374     		strb	r3, [r0, #16]
1126:Drivers/STM32F1xx_HAL_Driver/Src/stm32f1xx_hal_rtc.c ****   
 1068              		.loc 1 1126 0 is_stmt 1 discriminator 2
 1069 0012 0223     		movs	r3, #2
 1070 0014 4374     		strb	r3, [r0, #17]
1129:Drivers/STM32F1xx_HAL_Driver/Src/stm32f1xx_hal_rtc.c ****   
 1071              		.loc 1 1129 0 discriminator 2
 1072 0016 0268     		ldr	r2, [r0]
 1073 0018 1368     		ldr	r3, [r2]
 1074 001a 23F00203 		bic	r3, r3, #2
 1075 001e 1360     		str	r3, [r2]
1132:Drivers/STM32F1xx_HAL_Driver/Src/stm32f1xx_hal_rtc.c ****   {
 1076              		.loc 1 1132 0 discriminator 2
 1077 0020 FFF7FEFF 		bl	RTC_EnterInitMode
 1078              	.LVL116:
 1079 0024 30B1     		cbz	r0, .L90
1135:Drivers/STM32F1xx_HAL_Driver/Src/stm32f1xx_hal_rtc.c ****     
 1080              		.loc 1 1135 0
 1081 0026 0423     		movs	r3, #4
 1082 0028 6374     		strb	r3, [r4, #17]
1138:Drivers/STM32F1xx_HAL_Driver/Src/stm32f1xx_hal_rtc.c ****     
 1083              		.loc 1 1138 0
 1084 002a 0023     		movs	r3, #0
ARM GAS  /tmp/cc2ffejw.s 			page 52


 1085 002c 2374     		strb	r3, [r4, #16]
1140:Drivers/STM32F1xx_HAL_Driver/Src/stm32f1xx_hal_rtc.c ****   } 
 1086              		.loc 1 1140 0
 1087 002e 0123     		movs	r3, #1
 1088              	.L89:
1171:Drivers/STM32F1xx_HAL_Driver/Src/stm32f1xx_hal_rtc.c **** 
 1089              		.loc 1 1171 0
 1090 0030 1846     		mov	r0, r3
 1091 0032 10BD     		pop	{r4, pc}
 1092              	.LVL117:
 1093              	.L90:
1145:Drivers/STM32F1xx_HAL_Driver/Src/stm32f1xx_hal_rtc.c ****     
 1094              		.loc 1 1145 0
 1095 0034 2368     		ldr	r3, [r4]
 1096 0036 6FF00202 		mvn	r2, #2
 1097 003a 5A60     		str	r2, [r3, #4]
1148:Drivers/STM32F1xx_HAL_Driver/Src/stm32f1xx_hal_rtc.c ****     WRITE_REG(hrtc->Instance->ALRL, RTC_ALARM_RESETVALUE_REGISTER);
 1098              		.loc 1 1148 0
 1099 003c 2268     		ldr	r2, [r4]
 1100 003e 4FF6FF73 		movw	r3, #65535
 1101 0042 1362     		str	r3, [r2, #32]
1149:Drivers/STM32F1xx_HAL_Driver/Src/stm32f1xx_hal_rtc.c **** 
 1102              		.loc 1 1149 0
 1103 0044 2268     		ldr	r2, [r4]
 1104 0046 5362     		str	r3, [r2, #36]
1152:Drivers/STM32F1xx_HAL_Driver/Src/stm32f1xx_hal_rtc.c ****     
 1105              		.loc 1 1152 0
 1106 0048 0C4A     		ldr	r2, .L99
 1107 004a 1368     		ldr	r3, [r2]
 1108 004c 23F40033 		bic	r3, r3, #131072
 1109 0050 1360     		str	r3, [r2]
1155:Drivers/STM32F1xx_HAL_Driver/Src/stm32f1xx_hal_rtc.c ****     {       
 1110              		.loc 1 1155 0
 1111 0052 2046     		mov	r0, r4
 1112 0054 FFF7FEFF 		bl	RTC_ExitInitMode
 1113              	.LVL118:
 1114 0058 0346     		mov	r3, r0
 1115 005a 20B9     		cbnz	r0, .L98
1165:Drivers/STM32F1xx_HAL_Driver/Src/stm32f1xx_hal_rtc.c ****   
 1116              		.loc 1 1165 0
 1117 005c 0122     		movs	r2, #1
 1118 005e 6274     		strb	r2, [r4, #17]
1168:Drivers/STM32F1xx_HAL_Driver/Src/stm32f1xx_hal_rtc.c ****   
 1119              		.loc 1 1168 0
 1120 0060 0022     		movs	r2, #0
 1121 0062 2274     		strb	r2, [r4, #16]
1170:Drivers/STM32F1xx_HAL_Driver/Src/stm32f1xx_hal_rtc.c **** }
 1122              		.loc 1 1170 0
 1123 0064 E4E7     		b	.L89
 1124              	.L98:
1157:Drivers/STM32F1xx_HAL_Driver/Src/stm32f1xx_hal_rtc.c ****       
 1125              		.loc 1 1157 0
 1126 0066 0423     		movs	r3, #4
 1127 0068 6374     		strb	r3, [r4, #17]
1160:Drivers/STM32F1xx_HAL_Driver/Src/stm32f1xx_hal_rtc.c ****       
 1128              		.loc 1 1160 0
 1129 006a 0023     		movs	r3, #0
ARM GAS  /tmp/cc2ffejw.s 			page 53


 1130 006c 2374     		strb	r3, [r4, #16]
1162:Drivers/STM32F1xx_HAL_Driver/Src/stm32f1xx_hal_rtc.c ****     }
 1131              		.loc 1 1162 0
 1132 006e 0123     		movs	r3, #1
 1133 0070 DEE7     		b	.L89
 1134              	.LVL119:
 1135              	.L92:
 1136              	.LCFI13:
 1137              		.cfi_def_cfa_offset 0
 1138              		.cfi_restore 4
 1139              		.cfi_restore 14
1120:Drivers/STM32F1xx_HAL_Driver/Src/stm32f1xx_hal_rtc.c ****   }
 1140              		.loc 1 1120 0
 1141 0072 0123     		movs	r3, #1
1171:Drivers/STM32F1xx_HAL_Driver/Src/stm32f1xx_hal_rtc.c **** 
 1142              		.loc 1 1171 0
 1143 0074 1846     		mov	r0, r3
 1144              	.LVL120:
 1145 0076 7047     		bx	lr
 1146              	.LVL121:
 1147              	.L93:
 1148              	.LCFI14:
 1149              		.cfi_def_cfa_offset 8
 1150              		.cfi_offset 4, -8
 1151              		.cfi_offset 14, -4
1124:Drivers/STM32F1xx_HAL_Driver/Src/stm32f1xx_hal_rtc.c ****   
 1152              		.loc 1 1124 0
 1153 0078 0223     		movs	r3, #2
 1154 007a D9E7     		b	.L89
 1155              	.L100:
 1156              		.align	2
 1157              	.L99:
 1158 007c 00040140 		.word	1073808384
 1159              		.cfi_endproc
 1160              	.LFE77:
 1162              		.section	.text.HAL_RTC_AlarmAEventCallback,"ax",%progbits
 1163              		.align	1
 1164              		.weak	HAL_RTC_AlarmAEventCallback
 1165              		.syntax unified
 1166              		.thumb
 1167              		.thumb_func
 1168              		.fpu softvfp
 1170              	HAL_RTC_AlarmAEventCallback:
 1171              	.LFB79:
1208:Drivers/STM32F1xx_HAL_Driver/Src/stm32f1xx_hal_rtc.c ****   /* Prevent unused argument(s) compilation warning */
 1172              		.loc 1 1208 0
 1173              		.cfi_startproc
 1174              		@ args = 0, pretend = 0, frame = 0
 1175              		@ frame_needed = 0, uses_anonymous_args = 0
 1176              		@ link register save eliminated.
 1177              	.LVL122:
1214:Drivers/STM32F1xx_HAL_Driver/Src/stm32f1xx_hal_rtc.c **** 
 1178              		.loc 1 1214 0
 1179 0000 7047     		bx	lr
 1180              		.cfi_endproc
 1181              	.LFE79:
 1183              		.section	.text.HAL_RTC_AlarmIRQHandler,"ax",%progbits
ARM GAS  /tmp/cc2ffejw.s 			page 54


 1184              		.align	1
 1185              		.global	HAL_RTC_AlarmIRQHandler
 1186              		.syntax unified
 1187              		.thumb
 1188              		.thumb_func
 1189              		.fpu softvfp
 1191              	HAL_RTC_AlarmIRQHandler:
 1192              	.LFB78:
1180:Drivers/STM32F1xx_HAL_Driver/Src/stm32f1xx_hal_rtc.c ****   if(__HAL_RTC_ALARM_GET_IT_SOURCE(hrtc, RTC_IT_ALRA))
 1193              		.loc 1 1180 0
 1194              		.cfi_startproc
 1195              		@ args = 0, pretend = 0, frame = 0
 1196              		@ frame_needed = 0, uses_anonymous_args = 0
 1197              	.LVL123:
 1198 0000 10B5     		push	{r4, lr}
 1199              	.LCFI15:
 1200              		.cfi_def_cfa_offset 8
 1201              		.cfi_offset 4, -8
 1202              		.cfi_offset 14, -4
 1203 0002 0446     		mov	r4, r0
1181:Drivers/STM32F1xx_HAL_Driver/Src/stm32f1xx_hal_rtc.c ****   {
 1204              		.loc 1 1181 0
 1205 0004 0368     		ldr	r3, [r0]
 1206 0006 1A68     		ldr	r2, [r3]
 1207 0008 12F0020F 		tst	r2, #2
 1208 000c 03D0     		beq	.L103
1184:Drivers/STM32F1xx_HAL_Driver/Src/stm32f1xx_hal_rtc.c ****     {
 1209              		.loc 1 1184 0
 1210 000e 5B68     		ldr	r3, [r3, #4]
 1211 0010 13F0020F 		tst	r3, #2
 1212 0014 06D1     		bne	.L105
 1213              	.LVL124:
 1214              	.L103:
1195:Drivers/STM32F1xx_HAL_Driver/Src/stm32f1xx_hal_rtc.c ****   
 1215              		.loc 1 1195 0
 1216 0016 074B     		ldr	r3, .L106
 1217 0018 4FF40032 		mov	r2, #131072
 1218 001c 5A61     		str	r2, [r3, #20]
1198:Drivers/STM32F1xx_HAL_Driver/Src/stm32f1xx_hal_rtc.c **** }
 1219              		.loc 1 1198 0
 1220 001e 0123     		movs	r3, #1
 1221 0020 6374     		strb	r3, [r4, #17]
1199:Drivers/STM32F1xx_HAL_Driver/Src/stm32f1xx_hal_rtc.c **** 
 1222              		.loc 1 1199 0
 1223 0022 10BD     		pop	{r4, pc}
 1224              	.LVL125:
 1225              	.L105:
1187:Drivers/STM32F1xx_HAL_Driver/Src/stm32f1xx_hal_rtc.c ****       
 1226              		.loc 1 1187 0
 1227 0024 FFF7FEFF 		bl	HAL_RTC_AlarmAEventCallback
 1228              	.LVL126:
1190:Drivers/STM32F1xx_HAL_Driver/Src/stm32f1xx_hal_rtc.c ****     }
 1229              		.loc 1 1190 0
 1230 0028 2368     		ldr	r3, [r4]
 1231 002a 6FF00202 		mvn	r2, #2
 1232 002e 5A60     		str	r2, [r3, #4]
 1233 0030 F1E7     		b	.L103
ARM GAS  /tmp/cc2ffejw.s 			page 55


 1234              	.L107:
 1235 0032 00BF     		.align	2
 1236              	.L106:
 1237 0034 00040140 		.word	1073808384
 1238              		.cfi_endproc
 1239              	.LFE78:
 1241              		.section	.text.HAL_RTC_PollForAlarmAEvent,"ax",%progbits
 1242              		.align	1
 1243              		.global	HAL_RTC_PollForAlarmAEvent
 1244              		.syntax unified
 1245              		.thumb
 1246              		.thumb_func
 1247              		.fpu softvfp
 1249              	HAL_RTC_PollForAlarmAEvent:
 1250              	.LFB80:
1224:Drivers/STM32F1xx_HAL_Driver/Src/stm32f1xx_hal_rtc.c ****   uint32_t tickstart = HAL_GetTick();   
 1251              		.loc 1 1224 0
 1252              		.cfi_startproc
 1253              		@ args = 0, pretend = 0, frame = 0
 1254              		@ frame_needed = 0, uses_anonymous_args = 0
 1255              	.LVL127:
 1256 0000 70B5     		push	{r4, r5, r6, lr}
 1257              	.LCFI16:
 1258              		.cfi_def_cfa_offset 16
 1259              		.cfi_offset 4, -16
 1260              		.cfi_offset 5, -12
 1261              		.cfi_offset 6, -8
 1262              		.cfi_offset 14, -4
 1263 0002 0446     		mov	r4, r0
 1264 0004 0D46     		mov	r5, r1
1225:Drivers/STM32F1xx_HAL_Driver/Src/stm32f1xx_hal_rtc.c ****   
 1265              		.loc 1 1225 0
 1266 0006 FFF7FEFF 		bl	HAL_GetTick
 1267              	.LVL128:
 1268 000a 0646     		mov	r6, r0
 1269              	.LVL129:
1228:Drivers/STM32F1xx_HAL_Driver/Src/stm32f1xx_hal_rtc.c ****   {
 1270              		.loc 1 1228 0
 1271 000c BCB1     		cbz	r4, .L116
 1272              	.LVL130:
 1273              	.L111:
1233:Drivers/STM32F1xx_HAL_Driver/Src/stm32f1xx_hal_rtc.c ****   {
 1274              		.loc 1 1233 0
 1275 000e 2368     		ldr	r3, [r4]
 1276 0010 5A68     		ldr	r2, [r3, #4]
 1277 0012 12F0020F 		tst	r2, #2
 1278 0016 0BD1     		bne	.L117
1235:Drivers/STM32F1xx_HAL_Driver/Src/stm32f1xx_hal_rtc.c ****     {
 1279              		.loc 1 1235 0
 1280 0018 B5F1FF3F 		cmp	r5, #-1
 1281 001c F7D0     		beq	.L111
1237:Drivers/STM32F1xx_HAL_Driver/Src/stm32f1xx_hal_rtc.c ****       {
 1282              		.loc 1 1237 0
 1283 001e 25B1     		cbz	r5, .L112
1237:Drivers/STM32F1xx_HAL_Driver/Src/stm32f1xx_hal_rtc.c ****       {
 1284              		.loc 1 1237 0 is_stmt 0 discriminator 1
 1285 0020 FFF7FEFF 		bl	HAL_GetTick
ARM GAS  /tmp/cc2ffejw.s 			page 56


 1286              	.LVL131:
 1287 0024 801B     		subs	r0, r0, r6
 1288 0026 A842     		cmp	r0, r5
 1289 0028 F1D9     		bls	.L111
 1290              	.L112:
1239:Drivers/STM32F1xx_HAL_Driver/Src/stm32f1xx_hal_rtc.c ****         return HAL_TIMEOUT;
 1291              		.loc 1 1239 0 is_stmt 1
 1292 002a 0320     		movs	r0, #3
 1293 002c 6074     		strb	r0, [r4, #17]
1240:Drivers/STM32F1xx_HAL_Driver/Src/stm32f1xx_hal_rtc.c ****       }
 1294              		.loc 1 1240 0
 1295 002e 05E0     		b	.L109
 1296              	.L117:
1246:Drivers/STM32F1xx_HAL_Driver/Src/stm32f1xx_hal_rtc.c ****   
 1297              		.loc 1 1246 0
 1298 0030 6FF00202 		mvn	r2, #2
 1299 0034 5A60     		str	r2, [r3, #4]
1249:Drivers/STM32F1xx_HAL_Driver/Src/stm32f1xx_hal_rtc.c ****   
 1300              		.loc 1 1249 0
 1301 0036 0123     		movs	r3, #1
 1302 0038 6374     		strb	r3, [r4, #17]
1251:Drivers/STM32F1xx_HAL_Driver/Src/stm32f1xx_hal_rtc.c **** }
 1303              		.loc 1 1251 0
 1304 003a 0020     		movs	r0, #0
 1305              	.L109:
1252:Drivers/STM32F1xx_HAL_Driver/Src/stm32f1xx_hal_rtc.c **** 
 1306              		.loc 1 1252 0
 1307 003c 70BD     		pop	{r4, r5, r6, pc}
 1308              	.LVL132:
 1309              	.L116:
1230:Drivers/STM32F1xx_HAL_Driver/Src/stm32f1xx_hal_rtc.c ****   }
 1310              		.loc 1 1230 0
 1311 003e 0120     		movs	r0, #1
 1312              	.LVL133:
 1313 0040 FCE7     		b	.L109
 1314              		.cfi_endproc
 1315              	.LFE80:
 1317              		.section	.text.HAL_RTC_GetState,"ax",%progbits
 1318              		.align	1
 1319              		.global	HAL_RTC_GetState
 1320              		.syntax unified
 1321              		.thumb
 1322              		.thumb_func
 1323              		.fpu softvfp
 1325              	HAL_RTC_GetState:
 1326              	.LFB81:
1279:Drivers/STM32F1xx_HAL_Driver/Src/stm32f1xx_hal_rtc.c ****   return hrtc->State;
 1327              		.loc 1 1279 0
 1328              		.cfi_startproc
 1329              		@ args = 0, pretend = 0, frame = 0
 1330              		@ frame_needed = 0, uses_anonymous_args = 0
 1331              		@ link register save eliminated.
 1332              	.LVL134:
1280:Drivers/STM32F1xx_HAL_Driver/Src/stm32f1xx_hal_rtc.c **** }
 1333              		.loc 1 1280 0
 1334 0000 407C     		ldrb	r0, [r0, #17]	@ zero_extendqisi2
 1335              	.LVL135:
ARM GAS  /tmp/cc2ffejw.s 			page 57


1281:Drivers/STM32F1xx_HAL_Driver/Src/stm32f1xx_hal_rtc.c **** 
 1336              		.loc 1 1281 0
 1337 0002 7047     		bx	lr
 1338              		.cfi_endproc
 1339              	.LFE81:
 1341              		.section	.text.HAL_RTC_WaitForSynchro,"ax",%progbits
 1342              		.align	1
 1343              		.global	HAL_RTC_WaitForSynchro
 1344              		.syntax unified
 1345              		.thumb
 1346              		.thumb_func
 1347              		.fpu softvfp
 1349              	HAL_RTC_WaitForSynchro:
 1350              	.LFB82:
1312:Drivers/STM32F1xx_HAL_Driver/Src/stm32f1xx_hal_rtc.c ****   uint32_t tickstart = 0U;
 1351              		.loc 1 1312 0
 1352              		.cfi_startproc
 1353              		@ args = 0, pretend = 0, frame = 0
 1354              		@ frame_needed = 0, uses_anonymous_args = 0
 1355              	.LVL136:
1316:Drivers/STM32F1xx_HAL_Driver/Src/stm32f1xx_hal_rtc.c ****   {
 1356              		.loc 1 1316 0
 1357 0000 C0B1     		cbz	r0, .L123
1312:Drivers/STM32F1xx_HAL_Driver/Src/stm32f1xx_hal_rtc.c ****   uint32_t tickstart = 0U;
 1358              		.loc 1 1312 0
 1359 0002 38B5     		push	{r3, r4, r5, lr}
 1360              	.LCFI17:
 1361              		.cfi_def_cfa_offset 16
 1362              		.cfi_offset 3, -16
 1363              		.cfi_offset 4, -12
 1364              		.cfi_offset 5, -8
 1365              		.cfi_offset 14, -4
 1366 0004 0446     		mov	r4, r0
1322:Drivers/STM32F1xx_HAL_Driver/Src/stm32f1xx_hal_rtc.c ****   
 1367              		.loc 1 1322 0
 1368 0006 0268     		ldr	r2, [r0]
 1369 0008 5368     		ldr	r3, [r2, #4]
 1370 000a 23F00803 		bic	r3, r3, #8
 1371 000e 5360     		str	r3, [r2, #4]
1324:Drivers/STM32F1xx_HAL_Driver/Src/stm32f1xx_hal_rtc.c ****   
 1372              		.loc 1 1324 0
 1373 0010 FFF7FEFF 		bl	HAL_GetTick
 1374              	.LVL137:
 1375 0014 0546     		mov	r5, r0
 1376              	.LVL138:
 1377              	.L121:
1327:Drivers/STM32F1xx_HAL_Driver/Src/stm32f1xx_hal_rtc.c ****   {
 1378              		.loc 1 1327 0
 1379 0016 2368     		ldr	r3, [r4]
 1380 0018 5B68     		ldr	r3, [r3, #4]
 1381 001a 13F0080F 		tst	r3, #8
 1382 001e 07D1     		bne	.L129
1329:Drivers/STM32F1xx_HAL_Driver/Src/stm32f1xx_hal_rtc.c ****     {       
 1383              		.loc 1 1329 0
 1384 0020 FFF7FEFF 		bl	HAL_GetTick
 1385              	.LVL139:
 1386 0024 401B     		subs	r0, r0, r5
ARM GAS  /tmp/cc2ffejw.s 			page 58


 1387 0026 B0F57A7F 		cmp	r0, #1000
 1388 002a F4D9     		bls	.L121
1331:Drivers/STM32F1xx_HAL_Driver/Src/stm32f1xx_hal_rtc.c ****     } 
 1389              		.loc 1 1331 0
 1390 002c 0320     		movs	r0, #3
 1391 002e 00E0     		b	.L120
 1392              	.L129:
1335:Drivers/STM32F1xx_HAL_Driver/Src/stm32f1xx_hal_rtc.c **** }
 1393              		.loc 1 1335 0
 1394 0030 0020     		movs	r0, #0
 1395              	.L120:
1336:Drivers/STM32F1xx_HAL_Driver/Src/stm32f1xx_hal_rtc.c **** 
 1396              		.loc 1 1336 0
 1397 0032 38BD     		pop	{r3, r4, r5, pc}
 1398              	.LVL140:
 1399              	.L123:
 1400              	.LCFI18:
 1401              		.cfi_def_cfa_offset 0
 1402              		.cfi_restore 3
 1403              		.cfi_restore 4
 1404              		.cfi_restore 5
 1405              		.cfi_restore 14
1318:Drivers/STM32F1xx_HAL_Driver/Src/stm32f1xx_hal_rtc.c ****   }
 1406              		.loc 1 1318 0
 1407 0034 0120     		movs	r0, #1
 1408              	.LVL141:
1336:Drivers/STM32F1xx_HAL_Driver/Src/stm32f1xx_hal_rtc.c **** 
 1409              		.loc 1 1336 0
 1410 0036 7047     		bx	lr
 1411              		.cfi_endproc
 1412              	.LFE82:
 1414              		.section	.text.HAL_RTC_Init,"ax",%progbits
 1415              		.align	1
 1416              		.global	HAL_RTC_Init
 1417              		.syntax unified
 1418              		.thumb
 1419              		.thumb_func
 1420              		.fpu softvfp
 1422              	HAL_RTC_Init:
 1423              	.LFB66:
 243:Drivers/STM32F1xx_HAL_Driver/Src/stm32f1xx_hal_rtc.c ****   uint32_t prescaler = 0U;
 1424              		.loc 1 243 0
 1425              		.cfi_startproc
 1426              		@ args = 0, pretend = 0, frame = 0
 1427              		@ frame_needed = 0, uses_anonymous_args = 0
 1428              	.LVL142:
 246:Drivers/STM32F1xx_HAL_Driver/Src/stm32f1xx_hal_rtc.c ****   {
 1429              		.loc 1 246 0
 1430 0000 0028     		cmp	r0, #0
 1431 0002 5AD0     		beq	.L139
 243:Drivers/STM32F1xx_HAL_Driver/Src/stm32f1xx_hal_rtc.c ****   uint32_t prescaler = 0U;
 1432              		.loc 1 243 0
 1433 0004 10B5     		push	{r4, lr}
 1434              	.LCFI19:
 1435              		.cfi_def_cfa_offset 8
 1436              		.cfi_offset 4, -8
 1437              		.cfi_offset 14, -4
ARM GAS  /tmp/cc2ffejw.s 			page 59


 1438 0006 0446     		mov	r4, r0
 256:Drivers/STM32F1xx_HAL_Driver/Src/stm32f1xx_hal_rtc.c ****   {
 1439              		.loc 1 256 0
 1440 0008 437C     		ldrb	r3, [r0, #17]	@ zero_extendqisi2
 1441 000a 53B1     		cbz	r3, .L144
 1442              	.LVL143:
 1443              	.L132:
 266:Drivers/STM32F1xx_HAL_Driver/Src/stm32f1xx_hal_rtc.c ****        
 1444              		.loc 1 266 0
 1445 000c 0223     		movs	r3, #2
 1446 000e 6374     		strb	r3, [r4, #17]
 269:Drivers/STM32F1xx_HAL_Driver/Src/stm32f1xx_hal_rtc.c ****   {
 1447              		.loc 1 269 0
 1448 0010 2046     		mov	r0, r4
 1449 0012 FFF7FEFF 		bl	HAL_RTC_WaitForSynchro
 1450              	.LVL144:
 1451 0016 40B1     		cbz	r0, .L133
 272:Drivers/STM32F1xx_HAL_Driver/Src/stm32f1xx_hal_rtc.c ****     
 1452              		.loc 1 272 0
 1453 0018 0423     		movs	r3, #4
 1454 001a 6374     		strb	r3, [r4, #17]
 274:Drivers/STM32F1xx_HAL_Driver/Src/stm32f1xx_hal_rtc.c ****   } 
 1455              		.loc 1 274 0
 1456 001c 0123     		movs	r3, #1
 1457              	.LVL145:
 1458              	.L131:
 346:Drivers/STM32F1xx_HAL_Driver/Src/stm32f1xx_hal_rtc.c **** 
 1459              		.loc 1 346 0
 1460 001e 1846     		mov	r0, r3
 1461 0020 10BD     		pop	{r4, pc}
 1462              	.LVL146:
 1463              	.L144:
 259:Drivers/STM32F1xx_HAL_Driver/Src/stm32f1xx_hal_rtc.c ****     
 1464              		.loc 1 259 0
 1465 0022 0374     		strb	r3, [r0, #16]
 262:Drivers/STM32F1xx_HAL_Driver/Src/stm32f1xx_hal_rtc.c ****   }
 1466              		.loc 1 262 0
 1467 0024 FFF7FEFF 		bl	HAL_RTC_MspInit
 1468              	.LVL147:
 1469 0028 F0E7     		b	.L132
 1470              	.L133:
 278:Drivers/STM32F1xx_HAL_Driver/Src/stm32f1xx_hal_rtc.c ****   {
 1471              		.loc 1 278 0
 1472 002a 2046     		mov	r0, r4
 1473 002c FFF7FEFF 		bl	RTC_EnterInitMode
 1474              	.LVL148:
 1475 0030 0028     		cmp	r0, #0
 1476 0032 30D1     		bne	.L145
 288:Drivers/STM32F1xx_HAL_Driver/Src/stm32f1xx_hal_rtc.c ****     
 1477              		.loc 1 288 0
 1478 0034 2268     		ldr	r2, [r4]
 1479 0036 5368     		ldr	r3, [r2, #4]
 1480 0038 23F00703 		bic	r3, r3, #7
 1481 003c 5360     		str	r3, [r2, #4]
 290:Drivers/STM32F1xx_HAL_Driver/Src/stm32f1xx_hal_rtc.c ****     {
 1482              		.loc 1 290 0
 1483 003e A368     		ldr	r3, [r4, #8]
ARM GAS  /tmp/cc2ffejw.s 			page 60


 1484 0040 23B1     		cbz	r3, .L135
 293:Drivers/STM32F1xx_HAL_Driver/Src/stm32f1xx_hal_rtc.c ****     }
 1485              		.loc 1 293 0
 1486 0042 1F4A     		ldr	r2, .L149
 1487 0044 136B     		ldr	r3, [r2, #48]
 1488 0046 23F00103 		bic	r3, r3, #1
 1489 004a 1363     		str	r3, [r2, #48]
 1490              	.L135:
 297:Drivers/STM32F1xx_HAL_Driver/Src/stm32f1xx_hal_rtc.c **** 
 1491              		.loc 1 297 0
 1492 004c 1C4A     		ldr	r2, .L149
 1493 004e D36A     		ldr	r3, [r2, #44]
 1494 0050 23F46073 		bic	r3, r3, #896
 1495 0054 A168     		ldr	r1, [r4, #8]
 1496 0056 0B43     		orrs	r3, r3, r1
 1497 0058 D362     		str	r3, [r2, #44]
 299:Drivers/STM32F1xx_HAL_Driver/Src/stm32f1xx_hal_rtc.c ****     {
 1498              		.loc 1 299 0
 1499 005a 6268     		ldr	r2, [r4, #4]
 1500 005c B2F1FF3F 		cmp	r2, #-1
 1501 0060 1DD0     		beq	.L146
 1502              	.LVL149:
 1503              	.L136:
 325:Drivers/STM32F1xx_HAL_Driver/Src/stm32f1xx_hal_rtc.c ****     MODIFY_REG(hrtc->Instance->PRLL, RTC_PRLL_PRL, (prescaler & RTC_PRLL_PRL));
 1504              		.loc 1 325 0
 1505 0062 2168     		ldr	r1, [r4]
 1506 0064 8B68     		ldr	r3, [r1, #8]
 1507 0066 23F00F03 		bic	r3, r3, #15
 1508 006a 43EA1243 		orr	r3, r3, r2, lsr #16
 1509 006e 8B60     		str	r3, [r1, #8]
 326:Drivers/STM32F1xx_HAL_Driver/Src/stm32f1xx_hal_rtc.c ****       
 1510              		.loc 1 326 0
 1511 0070 2168     		ldr	r1, [r4]
 1512 0072 CB68     		ldr	r3, [r1, #12]
 1513 0074 1B0C     		lsrs	r3, r3, #16
 1514 0076 1B04     		lsls	r3, r3, #16
 1515 0078 92B2     		uxth	r2, r2
 1516              	.LVL150:
 1517 007a 1343     		orrs	r3, r3, r2
 1518 007c CB60     		str	r3, [r1, #12]
 329:Drivers/STM32F1xx_HAL_Driver/Src/stm32f1xx_hal_rtc.c ****     {       
 1519              		.loc 1 329 0
 1520 007e 2046     		mov	r0, r4
 1521 0080 FFF7FEFF 		bl	RTC_ExitInitMode
 1522              	.LVL151:
 1523 0084 0346     		mov	r3, r0
 1524 0086 A0B9     		cbnz	r0, .L147
 337:Drivers/STM32F1xx_HAL_Driver/Src/stm32f1xx_hal_rtc.c ****     hrtc->DateToUpdate.Month = RTC_MONTH_JANUARY;
 1525              		.loc 1 337 0
 1526 0088 0022     		movs	r2, #0
 1527 008a E273     		strb	r2, [r4, #15]
 338:Drivers/STM32F1xx_HAL_Driver/Src/stm32f1xx_hal_rtc.c ****     hrtc->DateToUpdate.Date = 0x01U;
 1528              		.loc 1 338 0
 1529 008c 0122     		movs	r2, #1
 1530 008e 6273     		strb	r2, [r4, #13]
 339:Drivers/STM32F1xx_HAL_Driver/Src/stm32f1xx_hal_rtc.c **** 
 1531              		.loc 1 339 0
ARM GAS  /tmp/cc2ffejw.s 			page 61


 1532 0090 A273     		strb	r2, [r4, #14]
 342:Drivers/STM32F1xx_HAL_Driver/Src/stm32f1xx_hal_rtc.c ****     
 1533              		.loc 1 342 0
 1534 0092 6274     		strb	r2, [r4, #17]
 344:Drivers/STM32F1xx_HAL_Driver/Src/stm32f1xx_hal_rtc.c ****   }
 1535              		.loc 1 344 0
 1536 0094 C3E7     		b	.L131
 1537              	.LVL152:
 1538              	.L145:
 281:Drivers/STM32F1xx_HAL_Driver/Src/stm32f1xx_hal_rtc.c ****     
 1539              		.loc 1 281 0
 1540 0096 0423     		movs	r3, #4
 1541 0098 6374     		strb	r3, [r4, #17]
 283:Drivers/STM32F1xx_HAL_Driver/Src/stm32f1xx_hal_rtc.c ****   } 
 1542              		.loc 1 283 0
 1543 009a 0123     		movs	r3, #1
 1544 009c BFE7     		b	.L131
 1545              	.L146:
 308:Drivers/STM32F1xx_HAL_Driver/Src/stm32f1xx_hal_rtc.c **** 
 1546              		.loc 1 308 0
 1547 009e 0120     		movs	r0, #1
 1548 00a0 FFF7FEFF 		bl	HAL_RCCEx_GetPeriphCLKFreq
 1549              	.LVL153:
 311:Drivers/STM32F1xx_HAL_Driver/Src/stm32f1xx_hal_rtc.c ****       {
 1550              		.loc 1 311 0
 1551 00a4 08B1     		cbz	r0, .L148
 320:Drivers/STM32F1xx_HAL_Driver/Src/stm32f1xx_hal_rtc.c ****       }
 1552              		.loc 1 320 0
 1553 00a6 421E     		subs	r2, r0, #1
 1554              	.LVL154:
 1555 00a8 DBE7     		b	.L136
 1556              	.LVL155:
 1557              	.L148:
 314:Drivers/STM32F1xx_HAL_Driver/Src/stm32f1xx_hal_rtc.c ****         return HAL_ERROR;
 1558              		.loc 1 314 0
 1559 00aa 0423     		movs	r3, #4
 1560 00ac 6374     		strb	r3, [r4, #17]
 315:Drivers/STM32F1xx_HAL_Driver/Src/stm32f1xx_hal_rtc.c ****       }
 1561              		.loc 1 315 0
 1562 00ae 0123     		movs	r3, #1
 1563 00b0 B5E7     		b	.L131
 1564              	.LVL156:
 1565              	.L147:
 331:Drivers/STM32F1xx_HAL_Driver/Src/stm32f1xx_hal_rtc.c ****       
 1566              		.loc 1 331 0
 1567 00b2 0423     		movs	r3, #4
 1568 00b4 6374     		strb	r3, [r4, #17]
 333:Drivers/STM32F1xx_HAL_Driver/Src/stm32f1xx_hal_rtc.c ****     }
 1569              		.loc 1 333 0
 1570 00b6 0123     		movs	r3, #1
 1571 00b8 B1E7     		b	.L131
 1572              	.LVL157:
 1573              	.L139:
 1574              	.LCFI20:
 1575              		.cfi_def_cfa_offset 0
 1576              		.cfi_restore 4
 1577              		.cfi_restore 14
ARM GAS  /tmp/cc2ffejw.s 			page 62


 248:Drivers/STM32F1xx_HAL_Driver/Src/stm32f1xx_hal_rtc.c ****   }
 1578              		.loc 1 248 0
 1579 00ba 0123     		movs	r3, #1
 346:Drivers/STM32F1xx_HAL_Driver/Src/stm32f1xx_hal_rtc.c **** 
 1580              		.loc 1 346 0
 1581 00bc 1846     		mov	r0, r3
 1582              	.LVL158:
 1583 00be 7047     		bx	lr
 1584              	.L150:
 1585              		.align	2
 1586              	.L149:
 1587 00c0 006C0040 		.word	1073769472
 1588              		.cfi_endproc
 1589              	.LFE66:
 1591              		.section	.text.HAL_RTC_DeInit,"ax",%progbits
 1592              		.align	1
 1593              		.global	HAL_RTC_DeInit
 1594              		.syntax unified
 1595              		.thumb
 1596              		.thumb_func
 1597              		.fpu softvfp
 1599              	HAL_RTC_DeInit:
 1600              	.LFB67:
 356:Drivers/STM32F1xx_HAL_Driver/Src/stm32f1xx_hal_rtc.c ****   /* Check input parameters */
 1601              		.loc 1 356 0
 1602              		.cfi_startproc
 1603              		@ args = 0, pretend = 0, frame = 0
 1604              		@ frame_needed = 0, uses_anonymous_args = 0
 1605              	.LVL159:
 1606 0000 38B5     		push	{r3, r4, r5, lr}
 1607              	.LCFI21:
 1608              		.cfi_def_cfa_offset 16
 1609              		.cfi_offset 3, -16
 1610              		.cfi_offset 4, -12
 1611              		.cfi_offset 5, -8
 1612              		.cfi_offset 14, -4
 358:Drivers/STM32F1xx_HAL_Driver/Src/stm32f1xx_hal_rtc.c ****   {
 1613              		.loc 1 358 0
 1614 0002 0028     		cmp	r0, #0
 1615 0004 34D0     		beq	.L155
 1616 0006 0446     		mov	r4, r0
 367:Drivers/STM32F1xx_HAL_Driver/Src/stm32f1xx_hal_rtc.c ****   
 1617              		.loc 1 367 0
 1618 0008 0223     		movs	r3, #2
 1619 000a 4374     		strb	r3, [r0, #17]
 370:Drivers/STM32F1xx_HAL_Driver/Src/stm32f1xx_hal_rtc.c ****   {
 1620              		.loc 1 370 0
 1621 000c FFF7FEFF 		bl	RTC_EnterInitMode
 1622              	.LVL160:
 1623 0010 28B1     		cbz	r0, .L153
 373:Drivers/STM32F1xx_HAL_Driver/Src/stm32f1xx_hal_rtc.c ****     
 1624              		.loc 1 373 0
 1625 0012 0423     		movs	r3, #4
 1626 0014 6374     		strb	r3, [r4, #17]
 376:Drivers/STM32F1xx_HAL_Driver/Src/stm32f1xx_hal_rtc.c **** 
 1627              		.loc 1 376 0
 1628 0016 0023     		movs	r3, #0
ARM GAS  /tmp/cc2ffejw.s 			page 63


 1629 0018 2374     		strb	r3, [r4, #16]
 378:Drivers/STM32F1xx_HAL_Driver/Src/stm32f1xx_hal_rtc.c ****   }  
 1630              		.loc 1 378 0
 1631 001a 0125     		movs	r5, #1
 1632 001c 29E0     		b	.L152
 1633              	.L153:
 382:Drivers/STM32F1xx_HAL_Driver/Src/stm32f1xx_hal_rtc.c ****     CLEAR_REG(hrtc->Instance->CNTH);
 1634              		.loc 1 382 0
 1635 001e 2268     		ldr	r2, [r4]
 1636 0020 0023     		movs	r3, #0
 1637 0022 D361     		str	r3, [r2, #28]
 383:Drivers/STM32F1xx_HAL_Driver/Src/stm32f1xx_hal_rtc.c ****     WRITE_REG(hrtc->Instance->PRLL, 0x00008000U);
 1638              		.loc 1 383 0
 1639 0024 2268     		ldr	r2, [r4]
 1640 0026 9361     		str	r3, [r2, #24]
 384:Drivers/STM32F1xx_HAL_Driver/Src/stm32f1xx_hal_rtc.c ****     CLEAR_REG(hrtc->Instance->PRLH);
 1641              		.loc 1 384 0
 1642 0028 2268     		ldr	r2, [r4]
 1643 002a 4FF40041 		mov	r1, #32768
 1644 002e D160     		str	r1, [r2, #12]
 385:Drivers/STM32F1xx_HAL_Driver/Src/stm32f1xx_hal_rtc.c **** 
 1645              		.loc 1 385 0
 1646 0030 2268     		ldr	r2, [r4]
 1647 0032 9360     		str	r3, [r2, #8]
 388:Drivers/STM32F1xx_HAL_Driver/Src/stm32f1xx_hal_rtc.c ****     CLEAR_REG(hrtc->Instance->CRL);
 1648              		.loc 1 388 0
 1649 0034 2268     		ldr	r2, [r4]
 1650 0036 1360     		str	r3, [r2]
 389:Drivers/STM32F1xx_HAL_Driver/Src/stm32f1xx_hal_rtc.c ****     
 1651              		.loc 1 389 0
 1652 0038 2268     		ldr	r2, [r4]
 1653 003a 5360     		str	r3, [r2, #4]
 391:Drivers/STM32F1xx_HAL_Driver/Src/stm32f1xx_hal_rtc.c ****     {       
 1654              		.loc 1 391 0
 1655 003c 2046     		mov	r0, r4
 1656 003e FFF7FEFF 		bl	RTC_ExitInitMode
 1657              	.LVL161:
 1658 0042 0546     		mov	r5, r0
 1659 0044 28B1     		cbz	r0, .L154
 393:Drivers/STM32F1xx_HAL_Driver/Src/stm32f1xx_hal_rtc.c ****       
 1660              		.loc 1 393 0
 1661 0046 0423     		movs	r3, #4
 1662 0048 6374     		strb	r3, [r4, #17]
 396:Drivers/STM32F1xx_HAL_Driver/Src/stm32f1xx_hal_rtc.c ****       
 1663              		.loc 1 396 0
 1664 004a 0023     		movs	r3, #0
 1665 004c 2374     		strb	r3, [r4, #16]
 398:Drivers/STM32F1xx_HAL_Driver/Src/stm32f1xx_hal_rtc.c ****     }
 1666              		.loc 1 398 0
 1667 004e 0125     		movs	r5, #1
 1668 0050 0FE0     		b	.L152
 1669              	.L154:
 403:Drivers/STM32F1xx_HAL_Driver/Src/stm32f1xx_hal_rtc.c **** 
 1670              		.loc 1 403 0
 1671 0052 2046     		mov	r0, r4
 1672 0054 FFF7FEFF 		bl	HAL_RTC_WaitForSynchro
 1673              	.LVL162:
ARM GAS  /tmp/cc2ffejw.s 			page 64


 406:Drivers/STM32F1xx_HAL_Driver/Src/stm32f1xx_hal_rtc.c ****     
 1674              		.loc 1 406 0
 1675 0058 2268     		ldr	r2, [r4]
 1676 005a 5368     		ldr	r3, [r2, #4]
 1677 005c 23F00803 		bic	r3, r3, #8
 1678 0060 5360     		str	r3, [r2, #4]
 409:Drivers/STM32F1xx_HAL_Driver/Src/stm32f1xx_hal_rtc.c **** 
 1679              		.loc 1 409 0
 1680 0062 2046     		mov	r0, r4
 1681 0064 FFF7FEFF 		bl	HAL_RTC_MspDeInit
 1682              	.LVL163:
 411:Drivers/STM32F1xx_HAL_Driver/Src/stm32f1xx_hal_rtc.c ****   
 1683              		.loc 1 411 0
 1684 0068 0023     		movs	r3, #0
 1685 006a 6374     		strb	r3, [r4, #17]
 414:Drivers/STM32F1xx_HAL_Driver/Src/stm32f1xx_hal_rtc.c **** 
 1686              		.loc 1 414 0
 1687 006c 2374     		strb	r3, [r4, #16]
 416:Drivers/STM32F1xx_HAL_Driver/Src/stm32f1xx_hal_rtc.c **** }
 1688              		.loc 1 416 0
 1689 006e 00E0     		b	.L152
 1690              	.LVL164:
 1691              	.L155:
 360:Drivers/STM32F1xx_HAL_Driver/Src/stm32f1xx_hal_rtc.c ****   }
 1692              		.loc 1 360 0
 1693 0070 0125     		movs	r5, #1
 1694              	.LVL165:
 1695              	.L152:
 417:Drivers/STM32F1xx_HAL_Driver/Src/stm32f1xx_hal_rtc.c **** 
 1696              		.loc 1 417 0
 1697 0072 2846     		mov	r0, r5
 1698 0074 38BD     		pop	{r3, r4, r5, pc}
 1699              		.cfi_endproc
 1700              	.LFE67:
 1702              		.section	.text.RTC_ReadTimeCounter,"ax",%progbits
 1703              		.align	1
 1704              		.global	RTC_ReadTimeCounter
 1705              		.syntax unified
 1706              		.thumb
 1707              		.thumb_func
 1708              		.fpu softvfp
 1710              	RTC_ReadTimeCounter:
 1711              	.LFB83:
1359:Drivers/STM32F1xx_HAL_Driver/Src/stm32f1xx_hal_rtc.c ****   uint16_t high1 = 0U, high2 = 0U, low = 0U;
 1712              		.loc 1 1359 0
 1713              		.cfi_startproc
 1714              		@ args = 0, pretend = 0, frame = 0
 1715              		@ frame_needed = 0, uses_anonymous_args = 0
 1716              		@ link register save eliminated.
 1717              	.LVL166:
 1718 0000 30B4     		push	{r4, r5}
 1719              	.LCFI22:
 1720              		.cfi_def_cfa_offset 8
 1721              		.cfi_offset 4, -8
 1722              		.cfi_offset 5, -4
 1723              	.LVL167:
1363:Drivers/STM32F1xx_HAL_Driver/Src/stm32f1xx_hal_rtc.c ****   low   = READ_REG(hrtc->Instance->CNTL & RTC_CNTL_RTC_CNT);
ARM GAS  /tmp/cc2ffejw.s 			page 65


 1724              		.loc 1 1363 0
 1725 0002 0268     		ldr	r2, [r0]
 1726 0004 9469     		ldr	r4, [r2, #24]
 1727 0006 A5B2     		uxth	r5, r4
 1728              	.LVL168:
1364:Drivers/STM32F1xx_HAL_Driver/Src/stm32f1xx_hal_rtc.c ****   high2 = READ_REG(hrtc->Instance->CNTH & RTC_CNTH_RTC_CNT);
 1729              		.loc 1 1364 0
 1730 0008 D369     		ldr	r3, [r2, #28]
 1731              	.LVL169:
1365:Drivers/STM32F1xx_HAL_Driver/Src/stm32f1xx_hal_rtc.c **** 
 1732              		.loc 1 1365 0
 1733 000a 9169     		ldr	r1, [r2, #24]
 1734 000c 88B2     		uxth	r0, r1
 1735              	.LVL170:
1367:Drivers/STM32F1xx_HAL_Driver/Src/stm32f1xx_hal_rtc.c ****   { /* In this case the counter roll over during reading of CNTL and CNTH registers, 
 1736              		.loc 1 1367 0
 1737 000e 8542     		cmp	r5, r0
 1738 0010 05D0     		beq	.L158
1370:Drivers/STM32F1xx_HAL_Driver/Src/stm32f1xx_hal_rtc.c ****   }
 1739              		.loc 1 1370 0
 1740 0012 D069     		ldr	r0, [r2, #28]
 1741              	.LVL171:
 1742 0014 80B2     		uxth	r0, r0
 1743 0016 40EA0140 		orr	r0, r0, r1, lsl #16
 1744              	.LVL172:
 1745              	.L157:
1379:Drivers/STM32F1xx_HAL_Driver/Src/stm32f1xx_hal_rtc.c **** 
 1746              		.loc 1 1379 0
 1747 001a 30BC     		pop	{r4, r5}
 1748              	.LCFI23:
 1749              		.cfi_remember_state
 1750              		.cfi_restore 5
 1751              		.cfi_restore 4
 1752              		.cfi_def_cfa_offset 0
 1753              	.LVL173:
 1754 001c 7047     		bx	lr
 1755              	.LVL174:
 1756              	.L158:
 1757              	.LCFI24:
 1758              		.cfi_restore_state
1375:Drivers/STM32F1xx_HAL_Driver/Src/stm32f1xx_hal_rtc.c ****   }
 1759              		.loc 1 1375 0
 1760 001e 98B2     		uxth	r0, r3
 1761              	.LVL175:
 1762 0020 40EA0440 		orr	r0, r0, r4, lsl #16
 1763              	.LVL176:
1378:Drivers/STM32F1xx_HAL_Driver/Src/stm32f1xx_hal_rtc.c **** }
 1764              		.loc 1 1378 0
 1765 0024 F9E7     		b	.L157
 1766              		.cfi_endproc
 1767              	.LFE83:
 1769              		.section	.text.HAL_RTC_GetTime,"ax",%progbits
 1770              		.align	1
 1771              		.global	HAL_RTC_GetTime
 1772              		.syntax unified
 1773              		.thumb
 1774              		.thumb_func
ARM GAS  /tmp/cc2ffejw.s 			page 66


 1775              		.fpu softvfp
 1777              	HAL_RTC_GetTime:
 1778              	.LFB71:
 578:Drivers/STM32F1xx_HAL_Driver/Src/stm32f1xx_hal_rtc.c ****   uint32_t counter_time = 0U, counter_alarm = 0U, days_elapsed = 0U, hours = 0U;
 1779              		.loc 1 578 0
 1780              		.cfi_startproc
 1781              		@ args = 0, pretend = 0, frame = 0
 1782              		@ frame_needed = 0, uses_anonymous_args = 0
 1783              	.LVL177:
 582:Drivers/STM32F1xx_HAL_Driver/Src/stm32f1xx_hal_rtc.c ****   {
 1784              		.loc 1 582 0
 1785 0000 0028     		cmp	r0, #0
 1786 0002 75D0     		beq	.L168
 578:Drivers/STM32F1xx_HAL_Driver/Src/stm32f1xx_hal_rtc.c ****   uint32_t counter_time = 0U, counter_alarm = 0U, days_elapsed = 0U, hours = 0U;
 1787              		.loc 1 578 0 discriminator 1
 1788 0004 2DE9F047 		push	{r4, r5, r6, r7, r8, r9, r10, lr}
 1789              	.LCFI25:
 1790              		.cfi_def_cfa_offset 32
 1791              		.cfi_offset 4, -32
 1792              		.cfi_offset 5, -28
 1793              		.cfi_offset 6, -24
 1794              		.cfi_offset 7, -20
 1795              		.cfi_offset 8, -16
 1796              		.cfi_offset 9, -12
 1797              		.cfi_offset 10, -8
 1798              		.cfi_offset 14, -4
 1799 0008 0546     		mov	r5, r0
 582:Drivers/STM32F1xx_HAL_Driver/Src/stm32f1xx_hal_rtc.c ****   {
 1800              		.loc 1 582 0 discriminator 1
 1801 000a 0029     		cmp	r1, #0
 1802 000c 72D0     		beq	.L169
 591:Drivers/STM32F1xx_HAL_Driver/Src/stm32f1xx_hal_rtc.c ****   {
 1803              		.loc 1 591 0
 1804 000e 0368     		ldr	r3, [r0]
 1805 0010 5B68     		ldr	r3, [r3, #4]
 1806 0012 13F0040F 		tst	r3, #4
 1807 0016 02D0     		beq	.L180
 593:Drivers/STM32F1xx_HAL_Driver/Src/stm32f1xx_hal_rtc.c ****   }
 1808              		.loc 1 593 0
 1809 0018 0120     		movs	r0, #1
 1810              	.LVL178:
 1811              	.L162:
 674:Drivers/STM32F1xx_HAL_Driver/Src/stm32f1xx_hal_rtc.c **** 
 1812              		.loc 1 674 0
 1813 001a BDE8F087 		pop	{r4, r5, r6, r7, r8, r9, r10, pc}
 1814              	.LVL179:
 1815              	.L180:
 1816 001e 1646     		mov	r6, r2
 1817 0020 0C46     		mov	r4, r1
 597:Drivers/STM32F1xx_HAL_Driver/Src/stm32f1xx_hal_rtc.c **** 
 1818              		.loc 1 597 0
 1819 0022 FFF7FEFF 		bl	RTC_ReadTimeCounter
 1820              	.LVL180:
 1821 0026 0746     		mov	r7, r0
 1822              	.LVL181:
 600:Drivers/STM32F1xx_HAL_Driver/Src/stm32f1xx_hal_rtc.c ****   sTime->Minutes  = (uint8_t)((counter_time % 3600U) / 60U);
 1823              		.loc 1 600 0
ARM GAS  /tmp/cc2ffejw.s 			page 67


 1824 0028 364A     		ldr	r2, .L183
 1825 002a A2FB0032 		umull	r3, r2, r2, r0
 1826 002e D20A     		lsrs	r2, r2, #11
 1827              	.LVL182:
 601:Drivers/STM32F1xx_HAL_Driver/Src/stm32f1xx_hal_rtc.c ****   sTime->Seconds  = (uint8_t)((counter_time % 3600U) % 60U);
 1828              		.loc 1 601 0
 1829 0030 4FF46160 		mov	r0, #3600
 1830              	.LVL183:
 1831 0034 00FB1270 		mls	r0, r0, r2, r7
 1832 0038 334B     		ldr	r3, .L183+4
 1833 003a A3FB0013 		umull	r1, r3, r3, r0
 1834 003e 5B09     		lsrs	r3, r3, #5
 1835 0040 6370     		strb	r3, [r4, #1]
 602:Drivers/STM32F1xx_HAL_Driver/Src/stm32f1xx_hal_rtc.c **** 
 1836              		.loc 1 602 0
 1837 0042 C3EB0313 		rsb	r3, r3, r3, lsl #4
 1838 0046 9900     		lsls	r1, r3, #2
 1839 0048 411A     		subs	r1, r0, r1
 1840 004a A170     		strb	r1, [r4, #2]
 604:Drivers/STM32F1xx_HAL_Driver/Src/stm32f1xx_hal_rtc.c ****   {
 1841              		.loc 1 604 0
 1842 004c 172A     		cmp	r2, #23
 1843 004e 10D8     		bhi	.L181
 661:Drivers/STM32F1xx_HAL_Driver/Src/stm32f1xx_hal_rtc.c ****   }
 1844              		.loc 1 661 0
 1845 0050 2270     		strb	r2, [r4]
 1846              	.LVL184:
 1847              	.L167:
 665:Drivers/STM32F1xx_HAL_Driver/Src/stm32f1xx_hal_rtc.c ****   {
 1848              		.loc 1 665 0
 1849 0052 002E     		cmp	r6, #0
 1850 0054 54D0     		beq	.L175
 668:Drivers/STM32F1xx_HAL_Driver/Src/stm32f1xx_hal_rtc.c ****     sTime->Minutes  = (uint8_t)RTC_ByteToBcd2(sTime->Minutes);
 1851              		.loc 1 668 0
 1852 0056 2078     		ldrb	r0, [r4]	@ zero_extendqisi2
 1853 0058 FFF7FEFF 		bl	RTC_ByteToBcd2
 1854              	.LVL185:
 1855 005c 2070     		strb	r0, [r4]
 669:Drivers/STM32F1xx_HAL_Driver/Src/stm32f1xx_hal_rtc.c ****     sTime->Seconds  = (uint8_t)RTC_ByteToBcd2(sTime->Seconds);  
 1856              		.loc 1 669 0
 1857 005e 6078     		ldrb	r0, [r4, #1]	@ zero_extendqisi2
 1858 0060 FFF7FEFF 		bl	RTC_ByteToBcd2
 1859              	.LVL186:
 1860 0064 6070     		strb	r0, [r4, #1]
 670:Drivers/STM32F1xx_HAL_Driver/Src/stm32f1xx_hal_rtc.c ****   }
 1861              		.loc 1 670 0
 1862 0066 A078     		ldrb	r0, [r4, #2]	@ zero_extendqisi2
 1863 0068 FFF7FEFF 		bl	RTC_ByteToBcd2
 1864              	.LVL187:
 1865 006c A070     		strb	r0, [r4, #2]
 673:Drivers/STM32F1xx_HAL_Driver/Src/stm32f1xx_hal_rtc.c **** }
 1866              		.loc 1 673 0
 1867 006e 0020     		movs	r0, #0
 1868 0070 D3E7     		b	.L162
 1869              	.LVL188:
 1870              	.L181:
 607:Drivers/STM32F1xx_HAL_Driver/Src/stm32f1xx_hal_rtc.c **** 
ARM GAS  /tmp/cc2ffejw.s 			page 68


 1871              		.loc 1 607 0
 1872 0072 264B     		ldr	r3, .L183+8
 1873 0074 A3FB0738 		umull	r3, r8, r3, r7
 1874 0078 4FEA1848 		lsr	r8, r8, #16
 1875              	.LVL189:
 610:Drivers/STM32F1xx_HAL_Driver/Src/stm32f1xx_hal_rtc.c **** 
 1876              		.loc 1 610 0
 1877 007c 244B     		ldr	r3, .L183+12
 1878 007e A3FB0213 		umull	r1, r3, r3, r2
 1879 0082 1B09     		lsrs	r3, r3, #4
 1880 0084 03EB4303 		add	r3, r3, r3, lsl #1
 1881 0088 D900     		lsls	r1, r3, #3
 1882 008a 531A     		subs	r3, r2, r1
 1883 008c 2370     		strb	r3, [r4]
 613:Drivers/STM32F1xx_HAL_Driver/Src/stm32f1xx_hal_rtc.c **** 
 1884              		.loc 1 613 0
 1885 008e 2846     		mov	r0, r5
 1886 0090 FFF7FEFF 		bl	RTC_ReadAlarmCounter
 1887              	.LVL190:
 1888 0094 8246     		mov	r10, r0
 1889              	.LVL191:
 616:Drivers/STM32F1xx_HAL_Driver/Src/stm32f1xx_hal_rtc.c ****     {
 1890              		.loc 1 616 0
 1891 0096 B0F1FF3F 		cmp	r0, #-1
 1892 009a 03D0     		beq	.L164
 616:Drivers/STM32F1xx_HAL_Driver/Src/stm32f1xx_hal_rtc.c ****     {
 1893              		.loc 1 616 0 is_stmt 0 discriminator 1
 1894 009c 8742     		cmp	r7, r0
 1895 009e 1CD2     		bcs	.L171
 618:Drivers/STM32F1xx_HAL_Driver/Src/stm32f1xx_hal_rtc.c ****     }
 1896              		.loc 1 618 0 is_stmt 1
 1897 00a0 A0EB070A 		sub	r10, r0, r7
 1898              	.LVL192:
 1899              	.L164:
 1900 00a4 194B     		ldr	r3, .L183+8
 1901 00a6 A3FB0739 		umull	r3, r9, r3, r7
 1902 00aa 4FEA1949 		lsr	r9, r9, #16
 1903 00ae 194B     		ldr	r3, .L183+16
 1904 00b0 03FB1979 		mls	r9, r3, r9, r7
 1905              	.LVL193:
 631:Drivers/STM32F1xx_HAL_Driver/Src/stm32f1xx_hal_rtc.c ****     {
 1906              		.loc 1 631 0
 1907 00b4 4946     		mov	r1, r9
 1908 00b6 2846     		mov	r0, r5
 1909 00b8 FFF7FEFF 		bl	RTC_WriteTimeCounter
 1910              	.LVL194:
 1911 00bc E0B9     		cbnz	r0, .L172
 637:Drivers/STM32F1xx_HAL_Driver/Src/stm32f1xx_hal_rtc.c ****     {
 1912              		.loc 1 637 0
 1913 00be BAF1FF3F 		cmp	r10, #-1
 1914 00c2 0DD0     		beq	.L165
 1915              	.LVL195:
 642:Drivers/STM32F1xx_HAL_Driver/Src/stm32f1xx_hal_rtc.c ****       {
 1916              		.loc 1 642 0
 1917 00c4 0AEB0901 		add	r1, r10, r9
 1918              	.LVL196:
 1919 00c8 2846     		mov	r0, r5
ARM GAS  /tmp/cc2ffejw.s 			page 69


 1920 00ca FFF7FEFF 		bl	RTC_WriteAlarmCounter
 1921              	.LVL197:
 1922 00ce A8B9     		cbnz	r0, .L182
 1923              	.LVL198:
 1924              	.L166:
 657:Drivers/STM32F1xx_HAL_Driver/Src/stm32f1xx_hal_rtc.c ****   }
 1925              		.loc 1 657 0
 1926 00d0 4146     		mov	r1, r8
 1927 00d2 2846     		mov	r0, r5
 1928 00d4 FFF7FEFF 		bl	RTC_DateUpdate
 1929              	.LVL199:
 1930 00d8 BBE7     		b	.L167
 1931              	.LVL200:
 1932              	.L171:
 624:Drivers/STM32F1xx_HAL_Driver/Src/stm32f1xx_hal_rtc.c ****     }
 1933              		.loc 1 624 0
 1934 00da 4FF0FF3A 		mov	r10, #-1
 1935 00de E1E7     		b	.L164
 1936              	.LVL201:
 1937              	.L165:
 650:Drivers/STM32F1xx_HAL_Driver/Src/stm32f1xx_hal_rtc.c ****       {
 1938              		.loc 1 650 0
 1939 00e0 5146     		mov	r1, r10
 1940 00e2 2846     		mov	r0, r5
 1941 00e4 FFF7FEFF 		bl	RTC_WriteAlarmCounter
 1942              	.LVL202:
 1943 00e8 0028     		cmp	r0, #0
 1944 00ea F1D0     		beq	.L166
 652:Drivers/STM32F1xx_HAL_Driver/Src/stm32f1xx_hal_rtc.c ****       }
 1945              		.loc 1 652 0
 1946 00ec 0120     		movs	r0, #1
 1947 00ee 94E7     		b	.L162
 1948              	.LVL203:
 1949              	.L168:
 1950              	.LCFI26:
 1951              		.cfi_def_cfa_offset 0
 1952              		.cfi_restore 4
 1953              		.cfi_restore 5
 1954              		.cfi_restore 6
 1955              		.cfi_restore 7
 1956              		.cfi_restore 8
 1957              		.cfi_restore 9
 1958              		.cfi_restore 10
 1959              		.cfi_restore 14
 584:Drivers/STM32F1xx_HAL_Driver/Src/stm32f1xx_hal_rtc.c ****   }
 1960              		.loc 1 584 0
 1961 00f0 0120     		movs	r0, #1
 1962              	.LVL204:
 674:Drivers/STM32F1xx_HAL_Driver/Src/stm32f1xx_hal_rtc.c **** 
 1963              		.loc 1 674 0
 1964 00f2 7047     		bx	lr
 1965              	.LVL205:
 1966              	.L169:
 1967              	.LCFI27:
 1968              		.cfi_def_cfa_offset 32
 1969              		.cfi_offset 4, -32
 1970              		.cfi_offset 5, -28
ARM GAS  /tmp/cc2ffejw.s 			page 70


 1971              		.cfi_offset 6, -24
 1972              		.cfi_offset 7, -20
 1973              		.cfi_offset 8, -16
 1974              		.cfi_offset 9, -12
 1975              		.cfi_offset 10, -8
 1976              		.cfi_offset 14, -4
 584:Drivers/STM32F1xx_HAL_Driver/Src/stm32f1xx_hal_rtc.c ****   }
 1977              		.loc 1 584 0
 1978 00f4 0120     		movs	r0, #1
 1979              	.LVL206:
 1980 00f6 90E7     		b	.L162
 1981              	.LVL207:
 1982              	.L172:
 633:Drivers/STM32F1xx_HAL_Driver/Src/stm32f1xx_hal_rtc.c ****     }
 1983              		.loc 1 633 0
 1984 00f8 0120     		movs	r0, #1
 1985 00fa 8EE7     		b	.L162
 1986              	.LVL208:
 1987              	.L182:
 644:Drivers/STM32F1xx_HAL_Driver/Src/stm32f1xx_hal_rtc.c ****       }
 1988              		.loc 1 644 0
 1989 00fc 0120     		movs	r0, #1
 1990 00fe 8CE7     		b	.L162
 1991              	.LVL209:
 1992              	.L175:
 673:Drivers/STM32F1xx_HAL_Driver/Src/stm32f1xx_hal_rtc.c **** }
 1993              		.loc 1 673 0
 1994 0100 0020     		movs	r0, #0
 1995 0102 8AE7     		b	.L162
 1996              	.L184:
 1997              		.align	2
 1998              	.L183:
 1999 0104 C5B3A291 		.word	-1851608123
 2000 0108 89888888 		.word	-2004318071
 2001 010c 07452EC2 		.word	-1037155065
 2002 0110 ABAAAAAA 		.word	-1431655765
 2003 0114 80510100 		.word	86400
 2004              		.cfi_endproc
 2005              	.LFE71:
 2007              		.section	.text.HAL_RTC_GetDate,"ax",%progbits
 2008              		.align	1
 2009              		.global	HAL_RTC_GetDate
 2010              		.syntax unified
 2011              		.thumb
 2012              		.thumb_func
 2013              		.fpu softvfp
 2015              	HAL_RTC_GetDate:
 2016              	.LFB73:
 803:Drivers/STM32F1xx_HAL_Driver/Src/stm32f1xx_hal_rtc.c ****   RTC_TimeTypeDef stime = {0U};
 2017              		.loc 1 803 0
 2018              		.cfi_startproc
 2019              		@ args = 0, pretend = 0, frame = 8
 2020              		@ frame_needed = 0, uses_anonymous_args = 0
 2021              	.LVL210:
 2022 0000 2DE9F041 		push	{r4, r5, r6, r7, r8, lr}
 2023              	.LCFI28:
 2024              		.cfi_def_cfa_offset 24
ARM GAS  /tmp/cc2ffejw.s 			page 71


 2025              		.cfi_offset 4, -24
 2026              		.cfi_offset 5, -20
 2027              		.cfi_offset 6, -16
 2028              		.cfi_offset 7, -12
 2029              		.cfi_offset 8, -8
 2030              		.cfi_offset 14, -4
 2031 0004 82B0     		sub	sp, sp, #8
 2032              	.LCFI29:
 2033              		.cfi_def_cfa_offset 32
 804:Drivers/STM32F1xx_HAL_Driver/Src/stm32f1xx_hal_rtc.c ****   
 2034              		.loc 1 804 0
 2035 0006 0023     		movs	r3, #0
 2036 0008 ADF80430 		strh	r3, [sp, #4]	@ movhi
 2037 000c 8DF80630 		strb	r3, [sp, #6]
 807:Drivers/STM32F1xx_HAL_Driver/Src/stm32f1xx_hal_rtc.c ****   {
 2038              		.loc 1 807 0
 2039 0010 00B3     		cbz	r0, .L187
 2040 0012 0546     		mov	r5, r0
 807:Drivers/STM32F1xx_HAL_Driver/Src/stm32f1xx_hal_rtc.c ****   {
 2041              		.loc 1 807 0 is_stmt 0 discriminator 1
 2042 0014 01B3     		cbz	r1, .L188
 2043 0016 1746     		mov	r7, r2
 2044 0018 0C46     		mov	r4, r1
 816:Drivers/STM32F1xx_HAL_Driver/Src/stm32f1xx_hal_rtc.c ****   {
 2045              		.loc 1 816 0 is_stmt 1
 2046 001a 1A46     		mov	r2, r3
 2047              	.LVL211:
 2048 001c 01A9     		add	r1, sp, #4
 2049              	.LVL212:
 2050 001e FFF7FEFF 		bl	HAL_RTC_GetTime
 2051              	.LVL213:
 2052 0022 0646     		mov	r6, r0
 2053 0024 E8B9     		cbnz	r0, .L189
 822:Drivers/STM32F1xx_HAL_Driver/Src/stm32f1xx_hal_rtc.c ****   sDate->Year     = hrtc->DateToUpdate.Year;
 2054              		.loc 1 822 0
 2055 0026 2B7B     		ldrb	r3, [r5, #12]	@ zero_extendqisi2
 2056 0028 2370     		strb	r3, [r4]
 823:Drivers/STM32F1xx_HAL_Driver/Src/stm32f1xx_hal_rtc.c ****   sDate->Month    = hrtc->DateToUpdate.Month;
 2057              		.loc 1 823 0
 2058 002a E87B     		ldrb	r0, [r5, #15]	@ zero_extendqisi2
 2059 002c E070     		strb	r0, [r4, #3]
 824:Drivers/STM32F1xx_HAL_Driver/Src/stm32f1xx_hal_rtc.c ****   sDate->Date     = hrtc->DateToUpdate.Date;
 2060              		.loc 1 824 0
 2061 002e 95F80D80 		ldrb	r8, [r5, #13]	@ zero_extendqisi2
 2062 0032 84F80180 		strb	r8, [r4, #1]
 825:Drivers/STM32F1xx_HAL_Driver/Src/stm32f1xx_hal_rtc.c **** 
 2063              		.loc 1 825 0
 2064 0036 AD7B     		ldrb	r5, [r5, #14]	@ zero_extendqisi2
 2065              	.LVL214:
 2066 0038 A570     		strb	r5, [r4, #2]
 828:Drivers/STM32F1xx_HAL_Driver/Src/stm32f1xx_hal_rtc.c ****   {    
 2067              		.loc 1 828 0
 2068 003a 77B1     		cbz	r7, .L186
 831:Drivers/STM32F1xx_HAL_Driver/Src/stm32f1xx_hal_rtc.c ****     sDate->Month  = (uint8_t)RTC_ByteToBcd2(sDate->Month);
 2069              		.loc 1 831 0
 2070 003c FFF7FEFF 		bl	RTC_ByteToBcd2
 2071              	.LVL215:
ARM GAS  /tmp/cc2ffejw.s 			page 72


 2072 0040 E070     		strb	r0, [r4, #3]
 832:Drivers/STM32F1xx_HAL_Driver/Src/stm32f1xx_hal_rtc.c ****     sDate->Date   = (uint8_t)RTC_ByteToBcd2(sDate->Date);  
 2073              		.loc 1 832 0
 2074 0042 4046     		mov	r0, r8
 2075 0044 FFF7FEFF 		bl	RTC_ByteToBcd2
 2076              	.LVL216:
 2077 0048 6070     		strb	r0, [r4, #1]
 833:Drivers/STM32F1xx_HAL_Driver/Src/stm32f1xx_hal_rtc.c ****   }
 2078              		.loc 1 833 0
 2079 004a 2846     		mov	r0, r5
 2080 004c FFF7FEFF 		bl	RTC_ByteToBcd2
 2081              	.LVL217:
 2082 0050 A070     		strb	r0, [r4, #2]
 2083 0052 02E0     		b	.L186
 2084              	.LVL218:
 2085              	.L187:
 809:Drivers/STM32F1xx_HAL_Driver/Src/stm32f1xx_hal_rtc.c ****   }
 2086              		.loc 1 809 0
 2087 0054 0126     		movs	r6, #1
 2088 0056 00E0     		b	.L186
 2089              	.L188:
 2090 0058 0126     		movs	r6, #1
 2091              	.LVL219:
 2092              	.L186:
 836:Drivers/STM32F1xx_HAL_Driver/Src/stm32f1xx_hal_rtc.c **** 
 2093              		.loc 1 836 0
 2094 005a 3046     		mov	r0, r6
 2095 005c 02B0     		add	sp, sp, #8
 2096              	.LCFI30:
 2097              		.cfi_remember_state
 2098              		.cfi_def_cfa_offset 24
 2099              		@ sp needed
 2100 005e BDE8F081 		pop	{r4, r5, r6, r7, r8, pc}
 2101              	.LVL220:
 2102              	.L189:
 2103              	.LCFI31:
 2104              		.cfi_restore_state
 818:Drivers/STM32F1xx_HAL_Driver/Src/stm32f1xx_hal_rtc.c ****   }
 2105              		.loc 1 818 0
 2106 0062 0126     		movs	r6, #1
 2107 0064 F9E7     		b	.L186
 2108              		.cfi_endproc
 2109              	.LFE73:
 2111              		.section	.text.HAL_RTC_SetAlarm,"ax",%progbits
 2112              		.align	1
 2113              		.global	HAL_RTC_SetAlarm
 2114              		.syntax unified
 2115              		.thumb
 2116              		.thumb_func
 2117              		.fpu softvfp
 2119              	HAL_RTC_SetAlarm:
 2120              	.LFB74:
 868:Drivers/STM32F1xx_HAL_Driver/Src/stm32f1xx_hal_rtc.c ****   uint32_t counter_alarm = 0U, counter_time;
 2121              		.loc 1 868 0
 2122              		.cfi_startproc
 2123              		@ args = 0, pretend = 0, frame = 8
 2124              		@ frame_needed = 0, uses_anonymous_args = 0
ARM GAS  /tmp/cc2ffejw.s 			page 73


 2125              	.LVL221:
 2126 0000 F0B5     		push	{r4, r5, r6, r7, lr}
 2127              	.LCFI32:
 2128              		.cfi_def_cfa_offset 20
 2129              		.cfi_offset 4, -20
 2130              		.cfi_offset 5, -16
 2131              		.cfi_offset 6, -12
 2132              		.cfi_offset 7, -8
 2133              		.cfi_offset 14, -4
 2134 0002 83B0     		sub	sp, sp, #12
 2135              	.LCFI33:
 2136              		.cfi_def_cfa_offset 32
 2137              	.LVL222:
 870:Drivers/STM32F1xx_HAL_Driver/Src/stm32f1xx_hal_rtc.c ****   
 2138              		.loc 1 870 0
 2139 0004 0023     		movs	r3, #0
 2140 0006 ADF80430 		strh	r3, [sp, #4]	@ movhi
 2141 000a 8DF80630 		strb	r3, [sp, #6]
 873:Drivers/STM32F1xx_HAL_Driver/Src/stm32f1xx_hal_rtc.c ****   {
 2142              		.loc 1 873 0
 2143 000e 0028     		cmp	r0, #0
 2144 0010 54D0     		beq	.L197
 2145 0012 0446     		mov	r4, r0
 873:Drivers/STM32F1xx_HAL_Driver/Src/stm32f1xx_hal_rtc.c ****   {
 2146              		.loc 1 873 0 is_stmt 0 discriminator 1
 2147 0014 0029     		cmp	r1, #0
 2148 0016 55D0     		beq	.L198
 883:Drivers/STM32F1xx_HAL_Driver/Src/stm32f1xx_hal_rtc.c ****   
 2149              		.loc 1 883 0 is_stmt 1
 2150 0018 037C     		ldrb	r3, [r0, #16]	@ zero_extendqisi2
 2151 001a 012B     		cmp	r3, #1
 2152 001c 54D0     		beq	.L199
 2153 001e 1646     		mov	r6, r2
 2154 0020 0D46     		mov	r5, r1
 883:Drivers/STM32F1xx_HAL_Driver/Src/stm32f1xx_hal_rtc.c ****   
 2155              		.loc 1 883 0 is_stmt 0 discriminator 2
 2156 0022 0123     		movs	r3, #1
 2157 0024 0374     		strb	r3, [r0, #16]
 885:Drivers/STM32F1xx_HAL_Driver/Src/stm32f1xx_hal_rtc.c ****   
 2158              		.loc 1 885 0 is_stmt 1 discriminator 2
 2159 0026 0223     		movs	r3, #2
 2160 0028 4374     		strb	r3, [r0, #17]
 888:Drivers/STM32F1xx_HAL_Driver/Src/stm32f1xx_hal_rtc.c ****   {
 2161              		.loc 1 888 0 discriminator 2
 2162 002a 0022     		movs	r2, #0
 2163              	.LVL223:
 2164 002c 01A9     		add	r1, sp, #4
 2165              	.LVL224:
 2166 002e FFF7FEFF 		bl	HAL_RTC_GetTime
 2167              	.LVL225:
 2168 0032 0028     		cmp	r0, #0
 2169 0034 4AD1     		bne	.L200
 894:Drivers/STM32F1xx_HAL_Driver/Src/stm32f1xx_hal_rtc.c ****                       ((uint32_t)stime.Minutes * 60U) + \
 2170              		.loc 1 894 0
 2171 0036 9DF80470 		ldrb	r7, [sp, #4]	@ zero_extendqisi2
 895:Drivers/STM32F1xx_HAL_Driver/Src/stm32f1xx_hal_rtc.c ****                       ((uint32_t)stime.Seconds));  
 2172              		.loc 1 895 0
ARM GAS  /tmp/cc2ffejw.s 			page 74


 2173 003a 9DF80530 		ldrb	r3, [sp, #5]	@ zero_extendqisi2
 2174 003e C3EB0313 		rsb	r3, r3, r3, lsl #4
 2175 0042 9A00     		lsls	r2, r3, #2
 894:Drivers/STM32F1xx_HAL_Driver/Src/stm32f1xx_hal_rtc.c ****                       ((uint32_t)stime.Minutes * 60U) + \
 2176              		.loc 1 894 0
 2177 0044 4FF46163 		mov	r3, #3600
 2178 0048 03FB0727 		mla	r7, r3, r7, r2
 896:Drivers/STM32F1xx_HAL_Driver/Src/stm32f1xx_hal_rtc.c **** 
 2179              		.loc 1 896 0
 2180 004c 9DF80630 		ldrb	r3, [sp, #6]	@ zero_extendqisi2
 894:Drivers/STM32F1xx_HAL_Driver/Src/stm32f1xx_hal_rtc.c ****                       ((uint32_t)stime.Minutes * 60U) + \
 2181              		.loc 1 894 0
 2182 0050 1F44     		add	r7, r7, r3
 2183              	.LVL226:
 898:Drivers/STM32F1xx_HAL_Driver/Src/stm32f1xx_hal_rtc.c ****   {
 2184              		.loc 1 898 0
 2185 0052 D6B9     		cbnz	r6, .L193
 904:Drivers/STM32F1xx_HAL_Driver/Src/stm32f1xx_hal_rtc.c ****                         ((uint32_t)sAlarm->AlarmTime.Minutes * 60U) + \
 2186              		.loc 1 904 0
 2187 0054 2978     		ldrb	r1, [r5]	@ zero_extendqisi2
 905:Drivers/STM32F1xx_HAL_Driver/Src/stm32f1xx_hal_rtc.c ****                         ((uint32_t)sAlarm->AlarmTime.Seconds));  
 2188              		.loc 1 905 0
 2189 0056 6B78     		ldrb	r3, [r5, #1]	@ zero_extendqisi2
 2190 0058 C3EB0313 		rsb	r3, r3, r3, lsl #4
 2191 005c 9800     		lsls	r0, r3, #2
 904:Drivers/STM32F1xx_HAL_Driver/Src/stm32f1xx_hal_rtc.c ****                         ((uint32_t)sAlarm->AlarmTime.Minutes * 60U) + \
 2192              		.loc 1 904 0
 2193 005e 4FF46163 		mov	r3, #3600
 2194 0062 03FB0101 		mla	r1, r3, r1, r0
 906:Drivers/STM32F1xx_HAL_Driver/Src/stm32f1xx_hal_rtc.c ****   }
 2195              		.loc 1 906 0
 2196 0066 A878     		ldrb	r0, [r5, #2]	@ zero_extendqisi2
 904:Drivers/STM32F1xx_HAL_Driver/Src/stm32f1xx_hal_rtc.c ****                         ((uint32_t)sAlarm->AlarmTime.Minutes * 60U) + \
 2197              		.loc 1 904 0
 2198 0068 0144     		add	r1, r1, r0
 2199              	.LVL227:
 2200              	.L194:
 920:Drivers/STM32F1xx_HAL_Driver/Src/stm32f1xx_hal_rtc.c ****   {
 2201              		.loc 1 920 0
 2202 006a B942     		cmp	r1, r7
 2203 006c 03D2     		bcs	.L195
 923:Drivers/STM32F1xx_HAL_Driver/Src/stm32f1xx_hal_rtc.c ****   }
 2204              		.loc 1 923 0
 2205 006e 01F5A831 		add	r1, r1, #86016
 2206              	.LVL228:
 2207 0072 01F5C071 		add	r1, r1, #384
 2208              	.LVL229:
 2209              	.L195:
 927:Drivers/STM32F1xx_HAL_Driver/Src/stm32f1xx_hal_rtc.c ****   {
 2210              		.loc 1 927 0
 2211 0076 2046     		mov	r0, r4
 2212 0078 FFF7FEFF 		bl	RTC_WriteAlarmCounter
 2213              	.LVL230:
 2214 007c 0346     		mov	r3, r0
 2215 007e B8B9     		cbnz	r0, .L202
 939:Drivers/STM32F1xx_HAL_Driver/Src/stm32f1xx_hal_rtc.c ****   
 2216              		.loc 1 939 0
ARM GAS  /tmp/cc2ffejw.s 			page 75


 2217 0080 0122     		movs	r2, #1
 2218 0082 6274     		strb	r2, [r4, #17]
 941:Drivers/STM32F1xx_HAL_Driver/Src/stm32f1xx_hal_rtc.c ****      
 2219              		.loc 1 941 0
 2220 0084 0022     		movs	r2, #0
 2221 0086 2274     		strb	r2, [r4, #16]
 943:Drivers/STM32F1xx_HAL_Driver/Src/stm32f1xx_hal_rtc.c ****   }
 2222              		.loc 1 943 0
 2223 0088 19E0     		b	.L192
 2224              	.LVL231:
 2225              	.L193:
 914:Drivers/STM32F1xx_HAL_Driver/Src/stm32f1xx_hal_rtc.c ****               ((uint32_t)(RTC_Bcd2ToByte(sAlarm->AlarmTime.Minutes)) * 60U) + \
 2226              		.loc 1 914 0
 2227 008a 2878     		ldrb	r0, [r5]	@ zero_extendqisi2
 2228 008c FFF7FEFF 		bl	RTC_Bcd2ToByte
 2229              	.LVL232:
 2230 0090 4FF46166 		mov	r6, #3600
 2231              	.LVL233:
 2232 0094 06FB00F6 		mul	r6, r6, r0
 915:Drivers/STM32F1xx_HAL_Driver/Src/stm32f1xx_hal_rtc.c ****               ((uint32_t)RTC_Bcd2ToByte(sAlarm->AlarmTime.Seconds)));   
 2233              		.loc 1 915 0
 2234 0098 6878     		ldrb	r0, [r5, #1]	@ zero_extendqisi2
 2235 009a FFF7FEFF 		bl	RTC_Bcd2ToByte
 2236              	.LVL234:
 2237 009e C0EB0010 		rsb	r0, r0, r0, lsl #4
 2238 00a2 8100     		lsls	r1, r0, #2
 914:Drivers/STM32F1xx_HAL_Driver/Src/stm32f1xx_hal_rtc.c ****               ((uint32_t)(RTC_Bcd2ToByte(sAlarm->AlarmTime.Minutes)) * 60U) + \
 2239              		.loc 1 914 0
 2240 00a4 0E44     		add	r6, r6, r1
 916:Drivers/STM32F1xx_HAL_Driver/Src/stm32f1xx_hal_rtc.c ****   }
 2241              		.loc 1 916 0
 2242 00a6 A878     		ldrb	r0, [r5, #2]	@ zero_extendqisi2
 2243 00a8 FFF7FEFF 		bl	RTC_Bcd2ToByte
 2244              	.LVL235:
 914:Drivers/STM32F1xx_HAL_Driver/Src/stm32f1xx_hal_rtc.c ****               ((uint32_t)(RTC_Bcd2ToByte(sAlarm->AlarmTime.Minutes)) * 60U) + \
 2245              		.loc 1 914 0
 2246 00ac 3118     		adds	r1, r6, r0
 2247              	.LVL236:
 2248 00ae DCE7     		b	.L194
 2249              	.LVL237:
 2250              	.L202:
 930:Drivers/STM32F1xx_HAL_Driver/Src/stm32f1xx_hal_rtc.c ****     
 2251              		.loc 1 930 0
 2252 00b0 0423     		movs	r3, #4
 2253 00b2 6374     		strb	r3, [r4, #17]
 933:Drivers/STM32F1xx_HAL_Driver/Src/stm32f1xx_hal_rtc.c ****     
 2254              		.loc 1 933 0
 2255 00b4 0023     		movs	r3, #0
 2256 00b6 2374     		strb	r3, [r4, #16]
 935:Drivers/STM32F1xx_HAL_Driver/Src/stm32f1xx_hal_rtc.c ****   }
 2257              		.loc 1 935 0
 2258 00b8 0123     		movs	r3, #1
 2259 00ba 00E0     		b	.L192
 2260              	.LVL238:
 2261              	.L197:
 875:Drivers/STM32F1xx_HAL_Driver/Src/stm32f1xx_hal_rtc.c ****   }
 2262              		.loc 1 875 0
ARM GAS  /tmp/cc2ffejw.s 			page 76


 2263 00bc 0123     		movs	r3, #1
 2264              	.LVL239:
 2265              	.L192:
 945:Drivers/STM32F1xx_HAL_Driver/Src/stm32f1xx_hal_rtc.c **** 
 2266              		.loc 1 945 0
 2267 00be 1846     		mov	r0, r3
 2268 00c0 03B0     		add	sp, sp, #12
 2269              	.LCFI34:
 2270              		.cfi_remember_state
 2271              		.cfi_def_cfa_offset 20
 2272              		@ sp needed
 2273 00c2 F0BD     		pop	{r4, r5, r6, r7, pc}
 2274              	.LVL240:
 2275              	.L198:
 2276              	.LCFI35:
 2277              		.cfi_restore_state
 875:Drivers/STM32F1xx_HAL_Driver/Src/stm32f1xx_hal_rtc.c ****   }
 2278              		.loc 1 875 0
 2279 00c4 0123     		movs	r3, #1
 2280 00c6 FAE7     		b	.L192
 2281              	.L199:
 883:Drivers/STM32F1xx_HAL_Driver/Src/stm32f1xx_hal_rtc.c ****   
 2282              		.loc 1 883 0
 2283 00c8 0223     		movs	r3, #2
 2284 00ca F8E7     		b	.L192
 2285              	.LVL241:
 2286              	.L200:
 890:Drivers/STM32F1xx_HAL_Driver/Src/stm32f1xx_hal_rtc.c ****   }
 2287              		.loc 1 890 0
 2288 00cc 0123     		movs	r3, #1
 2289 00ce F6E7     		b	.L192
 2290              		.cfi_endproc
 2291              	.LFE74:
 2293              		.section	.text.HAL_RTC_SetAlarm_IT,"ax",%progbits
 2294              		.align	1
 2295              		.global	HAL_RTC_SetAlarm_IT
 2296              		.syntax unified
 2297              		.thumb
 2298              		.thumb_func
 2299              		.fpu softvfp
 2301              	HAL_RTC_SetAlarm_IT:
 2302              	.LFB75:
 960:Drivers/STM32F1xx_HAL_Driver/Src/stm32f1xx_hal_rtc.c ****   uint32_t counter_alarm = 0U, counter_time;
 2303              		.loc 1 960 0
 2304              		.cfi_startproc
 2305              		@ args = 0, pretend = 0, frame = 8
 2306              		@ frame_needed = 0, uses_anonymous_args = 0
 2307              	.LVL242:
 2308 0000 F0B5     		push	{r4, r5, r6, r7, lr}
 2309              	.LCFI36:
 2310              		.cfi_def_cfa_offset 20
 2311              		.cfi_offset 4, -20
 2312              		.cfi_offset 5, -16
 2313              		.cfi_offset 6, -12
 2314              		.cfi_offset 7, -8
 2315              		.cfi_offset 14, -4
 2316 0002 83B0     		sub	sp, sp, #12
ARM GAS  /tmp/cc2ffejw.s 			page 77


 2317              	.LCFI37:
 2318              		.cfi_def_cfa_offset 32
 2319              	.LVL243:
 962:Drivers/STM32F1xx_HAL_Driver/Src/stm32f1xx_hal_rtc.c ****   
 2320              		.loc 1 962 0
 2321 0004 0023     		movs	r3, #0
 2322 0006 ADF80430 		strh	r3, [sp, #4]	@ movhi
 2323 000a 8DF80630 		strb	r3, [sp, #6]
 965:Drivers/STM32F1xx_HAL_Driver/Src/stm32f1xx_hal_rtc.c ****   {
 2324              		.loc 1 965 0
 2325 000e 0028     		cmp	r0, #0
 2326 0010 66D0     		beq	.L209
 2327 0012 0446     		mov	r4, r0
 965:Drivers/STM32F1xx_HAL_Driver/Src/stm32f1xx_hal_rtc.c ****   {
 2328              		.loc 1 965 0 is_stmt 0 discriminator 1
 2329 0014 0029     		cmp	r1, #0
 2330 0016 67D0     		beq	.L210
 975:Drivers/STM32F1xx_HAL_Driver/Src/stm32f1xx_hal_rtc.c ****   
 2331              		.loc 1 975 0 is_stmt 1
 2332 0018 037C     		ldrb	r3, [r0, #16]	@ zero_extendqisi2
 2333 001a 012B     		cmp	r3, #1
 2334 001c 66D0     		beq	.L211
 2335 001e 1646     		mov	r6, r2
 2336 0020 0D46     		mov	r5, r1
 975:Drivers/STM32F1xx_HAL_Driver/Src/stm32f1xx_hal_rtc.c ****   
 2337              		.loc 1 975 0 is_stmt 0 discriminator 2
 2338 0022 0123     		movs	r3, #1
 2339 0024 0374     		strb	r3, [r0, #16]
 977:Drivers/STM32F1xx_HAL_Driver/Src/stm32f1xx_hal_rtc.c ****   
 2340              		.loc 1 977 0 is_stmt 1 discriminator 2
 2341 0026 0223     		movs	r3, #2
 2342 0028 4374     		strb	r3, [r0, #17]
 980:Drivers/STM32F1xx_HAL_Driver/Src/stm32f1xx_hal_rtc.c ****   {
 2343              		.loc 1 980 0 discriminator 2
 2344 002a 0022     		movs	r2, #0
 2345              	.LVL244:
 2346 002c 01A9     		add	r1, sp, #4
 2347              	.LVL245:
 2348 002e FFF7FEFF 		bl	HAL_RTC_GetTime
 2349              	.LVL246:
 2350 0032 0028     		cmp	r0, #0
 2351 0034 5CD1     		bne	.L212
 986:Drivers/STM32F1xx_HAL_Driver/Src/stm32f1xx_hal_rtc.c ****                       ((uint32_t)stime.Minutes * 60U) + \
 2352              		.loc 1 986 0
 2353 0036 9DF80470 		ldrb	r7, [sp, #4]	@ zero_extendqisi2
 987:Drivers/STM32F1xx_HAL_Driver/Src/stm32f1xx_hal_rtc.c ****                       ((uint32_t)stime.Seconds));  
 2354              		.loc 1 987 0
 2355 003a 9DF80530 		ldrb	r3, [sp, #5]	@ zero_extendqisi2
 2356 003e C3EB0313 		rsb	r3, r3, r3, lsl #4
 2357 0042 9A00     		lsls	r2, r3, #2
 986:Drivers/STM32F1xx_HAL_Driver/Src/stm32f1xx_hal_rtc.c ****                       ((uint32_t)stime.Minutes * 60U) + \
 2358              		.loc 1 986 0
 2359 0044 4FF46163 		mov	r3, #3600
 2360 0048 03FB0727 		mla	r7, r3, r7, r2
 988:Drivers/STM32F1xx_HAL_Driver/Src/stm32f1xx_hal_rtc.c **** 
 2361              		.loc 1 988 0
 2362 004c 9DF80630 		ldrb	r3, [sp, #6]	@ zero_extendqisi2
ARM GAS  /tmp/cc2ffejw.s 			page 78


 986:Drivers/STM32F1xx_HAL_Driver/Src/stm32f1xx_hal_rtc.c ****                       ((uint32_t)stime.Minutes * 60U) + \
 2363              		.loc 1 986 0
 2364 0050 1F44     		add	r7, r7, r3
 2365              	.LVL247:
 990:Drivers/STM32F1xx_HAL_Driver/Src/stm32f1xx_hal_rtc.c ****   {
 2366              		.loc 1 990 0
 2367 0052 66BB     		cbnz	r6, .L205
 996:Drivers/STM32F1xx_HAL_Driver/Src/stm32f1xx_hal_rtc.c ****       ((uint32_t)sAlarm->AlarmTime.Minutes * 60U) + \
 2368              		.loc 1 996 0
 2369 0054 2978     		ldrb	r1, [r5]	@ zero_extendqisi2
 997:Drivers/STM32F1xx_HAL_Driver/Src/stm32f1xx_hal_rtc.c ****         ((uint32_t)sAlarm->AlarmTime.Seconds));  
 2370              		.loc 1 997 0
 2371 0056 6B78     		ldrb	r3, [r5, #1]	@ zero_extendqisi2
 2372 0058 C3EB0313 		rsb	r3, r3, r3, lsl #4
 2373 005c 9800     		lsls	r0, r3, #2
 996:Drivers/STM32F1xx_HAL_Driver/Src/stm32f1xx_hal_rtc.c ****       ((uint32_t)sAlarm->AlarmTime.Minutes * 60U) + \
 2374              		.loc 1 996 0
 2375 005e 4FF46163 		mov	r3, #3600
 2376 0062 03FB0101 		mla	r1, r3, r1, r0
 998:Drivers/STM32F1xx_HAL_Driver/Src/stm32f1xx_hal_rtc.c ****   }
 2377              		.loc 1 998 0
 2378 0066 A878     		ldrb	r0, [r5, #2]	@ zero_extendqisi2
 996:Drivers/STM32F1xx_HAL_Driver/Src/stm32f1xx_hal_rtc.c ****       ((uint32_t)sAlarm->AlarmTime.Minutes * 60U) + \
 2379              		.loc 1 996 0
 2380 0068 0144     		add	r1, r1, r0
 2381              	.LVL248:
 2382              	.L206:
1012:Drivers/STM32F1xx_HAL_Driver/Src/stm32f1xx_hal_rtc.c ****   {
 2383              		.loc 1 1012 0
 2384 006a B942     		cmp	r1, r7
 2385 006c 03D2     		bcs	.L207
1015:Drivers/STM32F1xx_HAL_Driver/Src/stm32f1xx_hal_rtc.c ****   }
 2386              		.loc 1 1015 0
 2387 006e 01F5A831 		add	r1, r1, #86016
 2388              	.LVL249:
 2389 0072 01F5C071 		add	r1, r1, #384
 2390              	.LVL250:
 2391              	.L207:
1019:Drivers/STM32F1xx_HAL_Driver/Src/stm32f1xx_hal_rtc.c ****   {
 2392              		.loc 1 1019 0
 2393 0076 2046     		mov	r0, r4
 2394 0078 FFF7FEFF 		bl	RTC_WriteAlarmCounter
 2395              	.LVL251:
 2396 007c 0346     		mov	r3, r0
 2397 007e 48BB     		cbnz	r0, .L214
1032:Drivers/STM32F1xx_HAL_Driver/Src/stm32f1xx_hal_rtc.c ****     
 2398              		.loc 1 1032 0
 2399 0080 2268     		ldr	r2, [r4]
 2400 0082 6FF00201 		mvn	r1, #2
 2401 0086 5160     		str	r1, [r2, #4]
1035:Drivers/STM32F1xx_HAL_Driver/Src/stm32f1xx_hal_rtc.c ****     
 2402              		.loc 1 1035 0
 2403 0088 2168     		ldr	r1, [r4]
 2404 008a 0A68     		ldr	r2, [r1]
 2405 008c 42F00202 		orr	r2, r2, #2
 2406 0090 0A60     		str	r2, [r1]
1038:Drivers/STM32F1xx_HAL_Driver/Src/stm32f1xx_hal_rtc.c ****     
ARM GAS  /tmp/cc2ffejw.s 			page 79


 2407              		.loc 1 1038 0
 2408 0092 184A     		ldr	r2, .L215
 2409 0094 1168     		ldr	r1, [r2]
 2410 0096 41F40031 		orr	r1, r1, #131072
 2411 009a 1160     		str	r1, [r2]
1040:Drivers/STM32F1xx_HAL_Driver/Src/stm32f1xx_hal_rtc.c **** 
 2412              		.loc 1 1040 0
 2413 009c 9168     		ldr	r1, [r2, #8]
 2414 009e 41F40031 		orr	r1, r1, #131072
 2415 00a2 9160     		str	r1, [r2, #8]
1042:Drivers/STM32F1xx_HAL_Driver/Src/stm32f1xx_hal_rtc.c ****   
 2416              		.loc 1 1042 0
 2417 00a4 0122     		movs	r2, #1
 2418 00a6 6274     		strb	r2, [r4, #17]
1044:Drivers/STM32F1xx_HAL_Driver/Src/stm32f1xx_hal_rtc.c ****      
 2419              		.loc 1 1044 0
 2420 00a8 0022     		movs	r2, #0
 2421 00aa 2274     		strb	r2, [r4, #16]
1046:Drivers/STM32F1xx_HAL_Driver/Src/stm32f1xx_hal_rtc.c ****   }
 2422              		.loc 1 1046 0
 2423 00ac 19E0     		b	.L204
 2424              	.LVL252:
 2425              	.L205:
1006:Drivers/STM32F1xx_HAL_Driver/Src/stm32f1xx_hal_rtc.c ****                      ((uint32_t)(RTC_Bcd2ToByte(sAlarm->AlarmTime.Minutes)) * 60U) + \
 2426              		.loc 1 1006 0
 2427 00ae 2878     		ldrb	r0, [r5]	@ zero_extendqisi2
 2428 00b0 FFF7FEFF 		bl	RTC_Bcd2ToByte
 2429              	.LVL253:
 2430 00b4 4FF46166 		mov	r6, #3600
 2431              	.LVL254:
 2432 00b8 06FB00F6 		mul	r6, r6, r0
1007:Drivers/STM32F1xx_HAL_Driver/Src/stm32f1xx_hal_rtc.c ****                      ((uint32_t)RTC_Bcd2ToByte(sAlarm->AlarmTime.Seconds)));   
 2433              		.loc 1 1007 0
 2434 00bc 6878     		ldrb	r0, [r5, #1]	@ zero_extendqisi2
 2435 00be FFF7FEFF 		bl	RTC_Bcd2ToByte
 2436              	.LVL255:
 2437 00c2 C0EB0010 		rsb	r0, r0, r0, lsl #4
 2438 00c6 8100     		lsls	r1, r0, #2
1006:Drivers/STM32F1xx_HAL_Driver/Src/stm32f1xx_hal_rtc.c ****                      ((uint32_t)(RTC_Bcd2ToByte(sAlarm->AlarmTime.Minutes)) * 60U) + \
 2439              		.loc 1 1006 0
 2440 00c8 0E44     		add	r6, r6, r1
1008:Drivers/STM32F1xx_HAL_Driver/Src/stm32f1xx_hal_rtc.c ****   }
 2441              		.loc 1 1008 0
 2442 00ca A878     		ldrb	r0, [r5, #2]	@ zero_extendqisi2
 2443 00cc FFF7FEFF 		bl	RTC_Bcd2ToByte
 2444              	.LVL256:
1006:Drivers/STM32F1xx_HAL_Driver/Src/stm32f1xx_hal_rtc.c ****                      ((uint32_t)(RTC_Bcd2ToByte(sAlarm->AlarmTime.Minutes)) * 60U) + \
 2445              		.loc 1 1006 0
 2446 00d0 3118     		adds	r1, r6, r0
 2447              	.LVL257:
 2448 00d2 CAE7     		b	.L206
 2449              	.LVL258:
 2450              	.L214:
1022:Drivers/STM32F1xx_HAL_Driver/Src/stm32f1xx_hal_rtc.c ****     
 2451              		.loc 1 1022 0
 2452 00d4 0423     		movs	r3, #4
 2453 00d6 6374     		strb	r3, [r4, #17]
ARM GAS  /tmp/cc2ffejw.s 			page 80


1025:Drivers/STM32F1xx_HAL_Driver/Src/stm32f1xx_hal_rtc.c ****     
 2454              		.loc 1 1025 0
 2455 00d8 0023     		movs	r3, #0
 2456 00da 2374     		strb	r3, [r4, #16]
1027:Drivers/STM32F1xx_HAL_Driver/Src/stm32f1xx_hal_rtc.c ****   }
 2457              		.loc 1 1027 0
 2458 00dc 0123     		movs	r3, #1
 2459 00de 00E0     		b	.L204
 2460              	.LVL259:
 2461              	.L209:
 967:Drivers/STM32F1xx_HAL_Driver/Src/stm32f1xx_hal_rtc.c ****   }
 2462              		.loc 1 967 0
 2463 00e0 0123     		movs	r3, #1
 2464              	.LVL260:
 2465              	.L204:
1048:Drivers/STM32F1xx_HAL_Driver/Src/stm32f1xx_hal_rtc.c **** 
 2466              		.loc 1 1048 0
 2467 00e2 1846     		mov	r0, r3
 2468 00e4 03B0     		add	sp, sp, #12
 2469              	.LCFI38:
 2470              		.cfi_remember_state
 2471              		.cfi_def_cfa_offset 20
 2472              		@ sp needed
 2473 00e6 F0BD     		pop	{r4, r5, r6, r7, pc}
 2474              	.LVL261:
 2475              	.L210:
 2476              	.LCFI39:
 2477              		.cfi_restore_state
 967:Drivers/STM32F1xx_HAL_Driver/Src/stm32f1xx_hal_rtc.c ****   }
 2478              		.loc 1 967 0
 2479 00e8 0123     		movs	r3, #1
 2480 00ea FAE7     		b	.L204
 2481              	.L211:
 975:Drivers/STM32F1xx_HAL_Driver/Src/stm32f1xx_hal_rtc.c ****   
 2482              		.loc 1 975 0
 2483 00ec 0223     		movs	r3, #2
 2484 00ee F8E7     		b	.L204
 2485              	.LVL262:
 2486              	.L212:
 982:Drivers/STM32F1xx_HAL_Driver/Src/stm32f1xx_hal_rtc.c ****   }
 2487              		.loc 1 982 0
 2488 00f0 0123     		movs	r3, #1
 2489 00f2 F6E7     		b	.L204
 2490              	.L216:
 2491              		.align	2
 2492              	.L215:
 2493 00f4 00040140 		.word	1073808384
 2494              		.cfi_endproc
 2495              	.LFE75:
 2497              		.section	.text.HAL_RTC_SetDate,"ax",%progbits
 2498              		.align	1
 2499              		.global	HAL_RTC_SetDate
 2500              		.syntax unified
 2501              		.thumb
 2502              		.thumb_func
 2503              		.fpu softvfp
 2505              	HAL_RTC_SetDate:
ARM GAS  /tmp/cc2ffejw.s 			page 81


 2506              	.LFB72:
 689:Drivers/STM32F1xx_HAL_Driver/Src/stm32f1xx_hal_rtc.c ****   uint32_t counter_time = 0U, counter_alarm = 0U, hours = 0U;
 2507              		.loc 1 689 0
 2508              		.cfi_startproc
 2509              		@ args = 0, pretend = 0, frame = 0
 2510              		@ frame_needed = 0, uses_anonymous_args = 0
 2511              	.LVL263:
 693:Drivers/STM32F1xx_HAL_Driver/Src/stm32f1xx_hal_rtc.c ****   {
 2512              		.loc 1 693 0
 2513 0000 0028     		cmp	r0, #0
 2514 0002 5DD0     		beq	.L223
 689:Drivers/STM32F1xx_HAL_Driver/Src/stm32f1xx_hal_rtc.c ****   uint32_t counter_time = 0U, counter_alarm = 0U, hours = 0U;
 2515              		.loc 1 689 0 discriminator 1
 2516 0004 38B5     		push	{r3, r4, r5, lr}
 2517              	.LCFI40:
 2518              		.cfi_def_cfa_offset 16
 2519              		.cfi_offset 3, -16
 2520              		.cfi_offset 4, -12
 2521              		.cfi_offset 5, -8
 2522              		.cfi_offset 14, -4
 2523 0006 0446     		mov	r4, r0
 693:Drivers/STM32F1xx_HAL_Driver/Src/stm32f1xx_hal_rtc.c ****   {
 2524              		.loc 1 693 0 discriminator 1
 2525 0008 0029     		cmp	r1, #0
 2526 000a 5BD0     		beq	.L224
 702:Drivers/STM32F1xx_HAL_Driver/Src/stm32f1xx_hal_rtc.c ****   
 2527              		.loc 1 702 0
 2528 000c 037C     		ldrb	r3, [r0, #16]	@ zero_extendqisi2
 2529 000e 012B     		cmp	r3, #1
 2530 0010 5AD0     		beq	.L225
 2531 0012 0D46     		mov	r5, r1
 702:Drivers/STM32F1xx_HAL_Driver/Src/stm32f1xx_hal_rtc.c ****   
 2532              		.loc 1 702 0 is_stmt 0 discriminator 2
 2533 0014 0123     		movs	r3, #1
 2534 0016 0374     		strb	r3, [r0, #16]
 704:Drivers/STM32F1xx_HAL_Driver/Src/stm32f1xx_hal_rtc.c ****   
 2535              		.loc 1 704 0 is_stmt 1 discriminator 2
 2536 0018 0223     		movs	r3, #2
 2537 001a 4374     		strb	r3, [r0, #17]
 706:Drivers/STM32F1xx_HAL_Driver/Src/stm32f1xx_hal_rtc.c ****   {   
 2538              		.loc 1 706 0 discriminator 2
 2539 001c D2B9     		cbnz	r2, .L219
 713:Drivers/STM32F1xx_HAL_Driver/Src/stm32f1xx_hal_rtc.c ****     hrtc->DateToUpdate.Month = sDate->Month;
 2540              		.loc 1 713 0
 2541 001e CB78     		ldrb	r3, [r1, #3]	@ zero_extendqisi2
 2542 0020 C373     		strb	r3, [r0, #15]
 714:Drivers/STM32F1xx_HAL_Driver/Src/stm32f1xx_hal_rtc.c ****     hrtc->DateToUpdate.Date  = sDate->Date;
 2543              		.loc 1 714 0
 2544 0022 4B78     		ldrb	r3, [r1, #1]	@ zero_extendqisi2
 2545 0024 4373     		strb	r3, [r0, #13]
 715:Drivers/STM32F1xx_HAL_Driver/Src/stm32f1xx_hal_rtc.c ****   }
 2546              		.loc 1 715 0
 2547 0026 8B78     		ldrb	r3, [r1, #2]	@ zero_extendqisi2
 2548 0028 8373     		strb	r3, [r0, #14]
 2549              	.LVL264:
 2550              	.L220:
 730:Drivers/STM32F1xx_HAL_Driver/Src/stm32f1xx_hal_rtc.c ****   sDate->WeekDay = hrtc->DateToUpdate.WeekDay;
ARM GAS  /tmp/cc2ffejw.s 			page 82


 2551              		.loc 1 730 0
 2552 002a A27B     		ldrb	r2, [r4, #14]	@ zero_extendqisi2
 2553 002c 617B     		ldrb	r1, [r4, #13]	@ zero_extendqisi2
 2554 002e E07B     		ldrb	r0, [r4, #15]	@ zero_extendqisi2
 2555 0030 FFF7FEFF 		bl	RTC_WeekDayNum
 2556              	.LVL265:
 2557 0034 2073     		strb	r0, [r4, #12]
 731:Drivers/STM32F1xx_HAL_Driver/Src/stm32f1xx_hal_rtc.c **** 
 2558              		.loc 1 731 0
 2559 0036 2870     		strb	r0, [r5]
 735:Drivers/STM32F1xx_HAL_Driver/Src/stm32f1xx_hal_rtc.c **** 
 2560              		.loc 1 735 0
 2561 0038 2046     		mov	r0, r4
 2562 003a FFF7FEFF 		bl	RTC_ReadTimeCounter
 2563              	.LVL266:
 738:Drivers/STM32F1xx_HAL_Driver/Src/stm32f1xx_hal_rtc.c ****   if (hours > 24U)
 2564              		.loc 1 738 0
 2565 003e 234B     		ldr	r3, .L231
 2566 0040 A3FB0023 		umull	r2, r3, r3, r0
 2567              	.LVL267:
 739:Drivers/STM32F1xx_HAL_Driver/Src/stm32f1xx_hal_rtc.c ****   {
 2568              		.loc 1 739 0
 2569 0044 B3F5484F 		cmp	r3, #51200
 2570 0048 11D2     		bcs	.L230
 2571              	.LVL268:
 2572              	.L221:
 783:Drivers/STM32F1xx_HAL_Driver/Src/stm32f1xx_hal_rtc.c ****   
 2573              		.loc 1 783 0
 2574 004a 0123     		movs	r3, #1
 2575 004c 6374     		strb	r3, [r4, #17]
 786:Drivers/STM32F1xx_HAL_Driver/Src/stm32f1xx_hal_rtc.c ****   
 2576              		.loc 1 786 0
 2577 004e 0020     		movs	r0, #0
 2578 0050 2074     		strb	r0, [r4, #16]
 2579              	.L218:
 789:Drivers/STM32F1xx_HAL_Driver/Src/stm32f1xx_hal_rtc.c **** 
 2580              		.loc 1 789 0
 2581 0052 38BD     		pop	{r3, r4, r5, pc}
 2582              	.LVL269:
 2583              	.L219:
 724:Drivers/STM32F1xx_HAL_Driver/Src/stm32f1xx_hal_rtc.c ****     hrtc->DateToUpdate.Month = RTC_Bcd2ToByte(sDate->Month);
 2584              		.loc 1 724 0
 2585 0054 C878     		ldrb	r0, [r1, #3]	@ zero_extendqisi2
 2586              	.LVL270:
 2587 0056 FFF7FEFF 		bl	RTC_Bcd2ToByte
 2588              	.LVL271:
 2589 005a E073     		strb	r0, [r4, #15]
 725:Drivers/STM32F1xx_HAL_Driver/Src/stm32f1xx_hal_rtc.c ****     hrtc->DateToUpdate.Date  = RTC_Bcd2ToByte(sDate->Date);
 2590              		.loc 1 725 0
 2591 005c 6878     		ldrb	r0, [r5, #1]	@ zero_extendqisi2
 2592 005e FFF7FEFF 		bl	RTC_Bcd2ToByte
 2593              	.LVL272:
 2594 0062 6073     		strb	r0, [r4, #13]
 726:Drivers/STM32F1xx_HAL_Driver/Src/stm32f1xx_hal_rtc.c ****   }
 2595              		.loc 1 726 0
 2596 0064 A878     		ldrb	r0, [r5, #2]	@ zero_extendqisi2
 2597 0066 FFF7FEFF 		bl	RTC_Bcd2ToByte
ARM GAS  /tmp/cc2ffejw.s 			page 83


 2598              	.LVL273:
 2599 006a A073     		strb	r0, [r4, #14]
 2600 006c DDE7     		b	.L220
 2601              	.LVL274:
 2602              	.L230:
 2603 006e 184D     		ldr	r5, .L231+4
 2604              	.LVL275:
 2605 0070 A5FB0035 		umull	r3, r5, r5, r0
 2606              	.LVL276:
 2607 0074 2D0C     		lsrs	r5, r5, #16
 2608 0076 174B     		ldr	r3, .L231+8
 2609 0078 03FB1505 		mls	r5, r3, r5, r0
 2610              	.LVL277:
 744:Drivers/STM32F1xx_HAL_Driver/Src/stm32f1xx_hal_rtc.c ****     {
 2611              		.loc 1 744 0
 2612 007c 2946     		mov	r1, r5
 2613 007e 2046     		mov	r0, r4
 2614              	.LVL278:
 2615 0080 FFF7FEFF 		bl	RTC_WriteTimeCounter
 2616              	.LVL279:
 2617 0084 28B1     		cbz	r0, .L222
 747:Drivers/STM32F1xx_HAL_Driver/Src/stm32f1xx_hal_rtc.c ****       
 2618              		.loc 1 747 0
 2619 0086 0423     		movs	r3, #4
 2620 0088 6374     		strb	r3, [r4, #17]
 750:Drivers/STM32F1xx_HAL_Driver/Src/stm32f1xx_hal_rtc.c ****       
 2621              		.loc 1 750 0
 2622 008a 0023     		movs	r3, #0
 2623 008c 2374     		strb	r3, [r4, #16]
 752:Drivers/STM32F1xx_HAL_Driver/Src/stm32f1xx_hal_rtc.c ****     }
 2624              		.loc 1 752 0
 2625 008e 0120     		movs	r0, #1
 2626 0090 DFE7     		b	.L218
 2627              	.L222:
 756:Drivers/STM32F1xx_HAL_Driver/Src/stm32f1xx_hal_rtc.c **** 
 2628              		.loc 1 756 0
 2629 0092 2046     		mov	r0, r4
 2630 0094 FFF7FEFF 		bl	RTC_ReadAlarmCounter
 2631              	.LVL280:
 759:Drivers/STM32F1xx_HAL_Driver/Src/stm32f1xx_hal_rtc.c ****     {
 2632              		.loc 1 759 0
 2633 0098 B0F1FF3F 		cmp	r0, #-1
 2634 009c D5D0     		beq	.L221
 761:Drivers/STM32F1xx_HAL_Driver/Src/stm32f1xx_hal_rtc.c ****       {
 2635              		.loc 1 761 0
 2636 009e 8542     		cmp	r5, r0
 2637 00a0 D3D9     		bls	.L221
 2638              	.LVL281:
 767:Drivers/STM32F1xx_HAL_Driver/Src/stm32f1xx_hal_rtc.c ****         {
 2639              		.loc 1 767 0
 2640 00a2 00F5A831 		add	r1, r0, #86016
 2641 00a6 01F5C071 		add	r1, r1, #384
 2642 00aa 2046     		mov	r0, r4
 2643              	.LVL282:
 2644 00ac FFF7FEFF 		bl	RTC_WriteAlarmCounter
 2645              	.LVL283:
 2646 00b0 0028     		cmp	r0, #0
ARM GAS  /tmp/cc2ffejw.s 			page 84


 2647 00b2 CAD0     		beq	.L221
 770:Drivers/STM32F1xx_HAL_Driver/Src/stm32f1xx_hal_rtc.c ****           
 2648              		.loc 1 770 0
 2649 00b4 0423     		movs	r3, #4
 2650 00b6 6374     		strb	r3, [r4, #17]
 773:Drivers/STM32F1xx_HAL_Driver/Src/stm32f1xx_hal_rtc.c ****           
 2651              		.loc 1 773 0
 2652 00b8 0023     		movs	r3, #0
 2653 00ba 2374     		strb	r3, [r4, #16]
 775:Drivers/STM32F1xx_HAL_Driver/Src/stm32f1xx_hal_rtc.c ****         }
 2654              		.loc 1 775 0
 2655 00bc 0120     		movs	r0, #1
 2656 00be C8E7     		b	.L218
 2657              	.LVL284:
 2658              	.L223:
 2659              	.LCFI41:
 2660              		.cfi_def_cfa_offset 0
 2661              		.cfi_restore 3
 2662              		.cfi_restore 4
 2663              		.cfi_restore 5
 2664              		.cfi_restore 14
 695:Drivers/STM32F1xx_HAL_Driver/Src/stm32f1xx_hal_rtc.c ****   }
 2665              		.loc 1 695 0
 2666 00c0 0120     		movs	r0, #1
 2667              	.LVL285:
 789:Drivers/STM32F1xx_HAL_Driver/Src/stm32f1xx_hal_rtc.c **** 
 2668              		.loc 1 789 0
 2669 00c2 7047     		bx	lr
 2670              	.LVL286:
 2671              	.L224:
 2672              	.LCFI42:
 2673              		.cfi_def_cfa_offset 16
 2674              		.cfi_offset 3, -16
 2675              		.cfi_offset 4, -12
 2676              		.cfi_offset 5, -8
 2677              		.cfi_offset 14, -4
 695:Drivers/STM32F1xx_HAL_Driver/Src/stm32f1xx_hal_rtc.c ****   }
 2678              		.loc 1 695 0
 2679 00c4 0120     		movs	r0, #1
 2680              	.LVL287:
 2681 00c6 C4E7     		b	.L218
 2682              	.LVL288:
 2683              	.L225:
 702:Drivers/STM32F1xx_HAL_Driver/Src/stm32f1xx_hal_rtc.c ****   
 2684              		.loc 1 702 0
 2685 00c8 0220     		movs	r0, #2
 2686              	.LVL289:
 2687 00ca C2E7     		b	.L218
 2688              	.L232:
 2689              		.align	2
 2690              	.L231:
 2691 00cc C5B3A291 		.word	-1851608123
 2692 00d0 07452EC2 		.word	-1037155065
 2693 00d4 80510100 		.word	86400
 2694              		.cfi_endproc
 2695              	.LFE72:
 2697              		.text
ARM GAS  /tmp/cc2ffejw.s 			page 85


 2698              	.Letext0:
 2699              		.file 2 "/usr/arm-none-eabi/include/machine/_default_types.h"
 2700              		.file 3 "/usr/arm-none-eabi/include/sys/_stdint.h"
 2701              		.file 4 "Drivers/CMSIS/Include/core_cm3.h"
 2702              		.file 5 "Drivers/CMSIS/Device/ST/STM32F1xx/Include/system_stm32f1xx.h"
 2703              		.file 6 "Drivers/CMSIS/Device/ST/STM32F1xx/Include/stm32f103xe.h"
 2704              		.file 7 "/usr/arm-none-eabi/include/sys/lock.h"
 2705              		.file 8 "/usr/arm-none-eabi/include/sys/_types.h"
 2706              		.file 9 "/usr/lib/gcc/arm-none-eabi/7.3.1/include/stddef.h"
 2707              		.file 10 "/usr/arm-none-eabi/include/sys/reent.h"
 2708              		.file 11 "Drivers/CMSIS/Device/ST/STM32F1xx/Include/stm32f1xx.h"
 2709              		.file 12 "Drivers/STM32F1xx_HAL_Driver/Inc/stm32f1xx_hal_def.h"
 2710              		.file 13 "Drivers/STM32F1xx_HAL_Driver/Inc/stm32f1xx_hal_rtc.h"
 2711              		.file 14 "Drivers/STM32F1xx_HAL_Driver/Inc/stm32f1xx_hal.h"
 2712              		.file 15 "Drivers/STM32F1xx_HAL_Driver/Inc/stm32f1xx_hal_rcc_ex.h"
ARM GAS  /tmp/cc2ffejw.s 			page 86


DEFINED SYMBOLS
                            *ABS*:0000000000000000 stm32f1xx_hal_rtc.c
     /tmp/cc2ffejw.s:16     .text.RTC_ReadAlarmCounter:0000000000000000 $t
     /tmp/cc2ffejw.s:22     .text.RTC_ReadAlarmCounter:0000000000000000 RTC_ReadAlarmCounter
     /tmp/cc2ffejw.s:48     .text.RTC_ByteToBcd2:0000000000000000 $t
     /tmp/cc2ffejw.s:54     .text.RTC_ByteToBcd2:0000000000000000 RTC_ByteToBcd2
     /tmp/cc2ffejw.s:92     .text.RTC_Bcd2ToByte:0000000000000000 $t
     /tmp/cc2ffejw.s:98     .text.RTC_Bcd2ToByte:0000000000000000 RTC_Bcd2ToByte
     /tmp/cc2ffejw.s:122    .text.RTC_IsLeapYear:0000000000000000 $t
     /tmp/cc2ffejw.s:128    .text.RTC_IsLeapYear:0000000000000000 RTC_IsLeapYear
     /tmp/cc2ffejw.s:179    .text.RTC_IsLeapYear:000000000000003c $d
     /tmp/cc2ffejw.s:184    .text.RTC_WeekDayNum:0000000000000000 $t
     /tmp/cc2ffejw.s:190    .text.RTC_WeekDayNum:0000000000000000 RTC_WeekDayNum
     /tmp/cc2ffejw.s:278    .text.RTC_WeekDayNum:0000000000000090 $d
     /tmp/cc2ffejw.s:285    .text.RTC_DateUpdate:0000000000000000 $t
     /tmp/cc2ffejw.s:291    .text.RTC_DateUpdate:0000000000000000 RTC_DateUpdate
     /tmp/cc2ffejw.s:472    .text.RTC_EnterInitMode:0000000000000000 $t
     /tmp/cc2ffejw.s:478    .text.RTC_EnterInitMode:0000000000000000 RTC_EnterInitMode
     /tmp/cc2ffejw.s:528    .text.RTC_ExitInitMode:0000000000000000 $t
     /tmp/cc2ffejw.s:534    .text.RTC_ExitInitMode:0000000000000000 RTC_ExitInitMode
     /tmp/cc2ffejw.s:585    .text.RTC_WriteTimeCounter:0000000000000000 $t
     /tmp/cc2ffejw.s:591    .text.RTC_WriteTimeCounter:0000000000000000 RTC_WriteTimeCounter
     /tmp/cc2ffejw.s:644    .text.RTC_WriteAlarmCounter:0000000000000000 $t
     /tmp/cc2ffejw.s:650    .text.RTC_WriteAlarmCounter:0000000000000000 RTC_WriteAlarmCounter
     /tmp/cc2ffejw.s:703    .text.HAL_RTC_MspInit:0000000000000000 $t
     /tmp/cc2ffejw.s:710    .text.HAL_RTC_MspInit:0000000000000000 HAL_RTC_MspInit
     /tmp/cc2ffejw.s:724    .text.HAL_RTC_MspDeInit:0000000000000000 $t
     /tmp/cc2ffejw.s:731    .text.HAL_RTC_MspDeInit:0000000000000000 HAL_RTC_MspDeInit
     /tmp/cc2ffejw.s:745    .text.HAL_RTC_SetTime:0000000000000000 $t
     /tmp/cc2ffejw.s:752    .text.HAL_RTC_SetTime:0000000000000000 HAL_RTC_SetTime
     /tmp/cc2ffejw.s:912    .text.HAL_RTC_GetAlarm:0000000000000000 $t
     /tmp/cc2ffejw.s:919    .text.HAL_RTC_GetAlarm:0000000000000000 HAL_RTC_GetAlarm
     /tmp/cc2ffejw.s:1030   .text.HAL_RTC_GetAlarm:0000000000000074 $d
     /tmp/cc2ffejw.s:1037   .text.HAL_RTC_DeactivateAlarm:0000000000000000 $t
     /tmp/cc2ffejw.s:1044   .text.HAL_RTC_DeactivateAlarm:0000000000000000 HAL_RTC_DeactivateAlarm
     /tmp/cc2ffejw.s:1158   .text.HAL_RTC_DeactivateAlarm:000000000000007c $d
     /tmp/cc2ffejw.s:1163   .text.HAL_RTC_AlarmAEventCallback:0000000000000000 $t
     /tmp/cc2ffejw.s:1170   .text.HAL_RTC_AlarmAEventCallback:0000000000000000 HAL_RTC_AlarmAEventCallback
     /tmp/cc2ffejw.s:1184   .text.HAL_RTC_AlarmIRQHandler:0000000000000000 $t
     /tmp/cc2ffejw.s:1191   .text.HAL_RTC_AlarmIRQHandler:0000000000000000 HAL_RTC_AlarmIRQHandler
     /tmp/cc2ffejw.s:1237   .text.HAL_RTC_AlarmIRQHandler:0000000000000034 $d
     /tmp/cc2ffejw.s:1242   .text.HAL_RTC_PollForAlarmAEvent:0000000000000000 $t
     /tmp/cc2ffejw.s:1249   .text.HAL_RTC_PollForAlarmAEvent:0000000000000000 HAL_RTC_PollForAlarmAEvent
     /tmp/cc2ffejw.s:1318   .text.HAL_RTC_GetState:0000000000000000 $t
     /tmp/cc2ffejw.s:1325   .text.HAL_RTC_GetState:0000000000000000 HAL_RTC_GetState
     /tmp/cc2ffejw.s:1342   .text.HAL_RTC_WaitForSynchro:0000000000000000 $t
     /tmp/cc2ffejw.s:1349   .text.HAL_RTC_WaitForSynchro:0000000000000000 HAL_RTC_WaitForSynchro
     /tmp/cc2ffejw.s:1415   .text.HAL_RTC_Init:0000000000000000 $t
     /tmp/cc2ffejw.s:1422   .text.HAL_RTC_Init:0000000000000000 HAL_RTC_Init
     /tmp/cc2ffejw.s:1587   .text.HAL_RTC_Init:00000000000000c0 $d
     /tmp/cc2ffejw.s:1592   .text.HAL_RTC_DeInit:0000000000000000 $t
     /tmp/cc2ffejw.s:1599   .text.HAL_RTC_DeInit:0000000000000000 HAL_RTC_DeInit
     /tmp/cc2ffejw.s:1703   .text.RTC_ReadTimeCounter:0000000000000000 $t
     /tmp/cc2ffejw.s:1710   .text.RTC_ReadTimeCounter:0000000000000000 RTC_ReadTimeCounter
     /tmp/cc2ffejw.s:1770   .text.HAL_RTC_GetTime:0000000000000000 $t
     /tmp/cc2ffejw.s:1777   .text.HAL_RTC_GetTime:0000000000000000 HAL_RTC_GetTime
     /tmp/cc2ffejw.s:1999   .text.HAL_RTC_GetTime:0000000000000104 $d
ARM GAS  /tmp/cc2ffejw.s 			page 87


     /tmp/cc2ffejw.s:2008   .text.HAL_RTC_GetDate:0000000000000000 $t
     /tmp/cc2ffejw.s:2015   .text.HAL_RTC_GetDate:0000000000000000 HAL_RTC_GetDate
     /tmp/cc2ffejw.s:2112   .text.HAL_RTC_SetAlarm:0000000000000000 $t
     /tmp/cc2ffejw.s:2119   .text.HAL_RTC_SetAlarm:0000000000000000 HAL_RTC_SetAlarm
     /tmp/cc2ffejw.s:2294   .text.HAL_RTC_SetAlarm_IT:0000000000000000 $t
     /tmp/cc2ffejw.s:2301   .text.HAL_RTC_SetAlarm_IT:0000000000000000 HAL_RTC_SetAlarm_IT
     /tmp/cc2ffejw.s:2493   .text.HAL_RTC_SetAlarm_IT:00000000000000f4 $d
     /tmp/cc2ffejw.s:2498   .text.HAL_RTC_SetDate:0000000000000000 $t
     /tmp/cc2ffejw.s:2505   .text.HAL_RTC_SetDate:0000000000000000 HAL_RTC_SetDate
     /tmp/cc2ffejw.s:2691   .text.HAL_RTC_SetDate:00000000000000cc $d

UNDEFINED SYMBOLS
HAL_GetTick
HAL_RCCEx_GetPeriphCLKFreq
